
Smart_Lighting_System.elf:     file format elf32-littlearm

Sections:
Idx Name          Size      VMA       LMA       File off  Algn
  0 .isr_vector   00000198  08000000  08000000  00001000  2**0
                  CONTENTS, ALLOC, LOAD, READONLY, DATA
  1 .text         00003f60  08000198  08000198  00001198  2**2
                  CONTENTS, ALLOC, LOAD, READONLY, CODE
  2 .rodata       00000024  080040f8  080040f8  000050f8  2**0
                  CONTENTS, ALLOC, LOAD, READONLY, DATA
  3 .ARM.extab    00000000  0800411c  0800411c  0000601c  2**0
                  CONTENTS
  4 .ARM          00000008  0800411c  0800411c  0000511c  2**2
                  CONTENTS, ALLOC, LOAD, READONLY, DATA
  5 .preinit_array 00000000  08004124  08004124  0000601c  2**0
                  CONTENTS, ALLOC, LOAD, DATA
  6 .init_array   00000004  08004124  08004124  00005124  2**2
                  CONTENTS, ALLOC, LOAD, READONLY, DATA
  7 .fini_array   00000004  08004128  08004128  00005128  2**2
                  CONTENTS, ALLOC, LOAD, READONLY, DATA
  8 .data         0000001c  20000000  0800412c  00006000  2**2
                  CONTENTS, ALLOC, LOAD, DATA
  9 .bss          000002a8  2000001c  08004148  0000601c  2**2
                  ALLOC
 10 ._user_heap_stack 00000604  200002c4  08004148  000062c4  2**0
                  ALLOC
 11 .ARM.attributes 00000030  00000000  00000000  0000601c  2**0
                  CONTENTS, READONLY
 12 .comment      00000043  00000000  00000000  0000604c  2**0
                  CONTENTS, READONLY
 13 .debug_frame  000000d4  00000000  00000000  00006090  2**2
                  CONTENTS, READONLY, DEBUGGING, OCTETS

Disassembly of section .text:

08000198 <__do_global_dtors_aux>:
 8000198:	b510      	push	{r4, lr}
 800019a:	4c05      	ldr	r4, [pc, #20]	@ (80001b0 <__do_global_dtors_aux+0x18>)
 800019c:	7823      	ldrb	r3, [r4, #0]
 800019e:	b933      	cbnz	r3, 80001ae <__do_global_dtors_aux+0x16>
 80001a0:	4b04      	ldr	r3, [pc, #16]	@ (80001b4 <__do_global_dtors_aux+0x1c>)
 80001a2:	b113      	cbz	r3, 80001aa <__do_global_dtors_aux+0x12>
 80001a4:	4804      	ldr	r0, [pc, #16]	@ (80001b8 <__do_global_dtors_aux+0x20>)
 80001a6:	f3af 8000 	nop.w
 80001aa:	2301      	movs	r3, #1
 80001ac:	7023      	strb	r3, [r4, #0]
 80001ae:	bd10      	pop	{r4, pc}
 80001b0:	2000001c 	.word	0x2000001c
 80001b4:	00000000 	.word	0x00000000
 80001b8:	080040e0 	.word	0x080040e0

080001bc <frame_dummy>:
 80001bc:	b508      	push	{r3, lr}
 80001be:	4b03      	ldr	r3, [pc, #12]	@ (80001cc <frame_dummy+0x10>)
 80001c0:	b11b      	cbz	r3, 80001ca <frame_dummy+0xe>
 80001c2:	4903      	ldr	r1, [pc, #12]	@ (80001d0 <frame_dummy+0x14>)
 80001c4:	4803      	ldr	r0, [pc, #12]	@ (80001d4 <frame_dummy+0x18>)
 80001c6:	f3af 8000 	nop.w
 80001ca:	bd08      	pop	{r3, pc}
 80001cc:	00000000 	.word	0x00000000
 80001d0:	20000020 	.word	0x20000020
 80001d4:	080040e0 	.word	0x080040e0

080001d8 <__aeabi_uldivmod>:
 80001d8:	b953      	cbnz	r3, 80001f0 <__aeabi_uldivmod+0x18>
 80001da:	b94a      	cbnz	r2, 80001f0 <__aeabi_uldivmod+0x18>
 80001dc:	2900      	cmp	r1, #0
 80001de:	bf08      	it	eq
 80001e0:	2800      	cmpeq	r0, #0
 80001e2:	bf1c      	itt	ne
 80001e4:	f04f 31ff 	movne.w	r1, #4294967295	@ 0xffffffff
 80001e8:	f04f 30ff 	movne.w	r0, #4294967295	@ 0xffffffff
 80001ec:	f000 b96a 	b.w	80004c4 <__aeabi_idiv0>
 80001f0:	f1ad 0c08 	sub.w	ip, sp, #8
 80001f4:	e96d ce04 	strd	ip, lr, [sp, #-16]!
 80001f8:	f000 f806 	bl	8000208 <__udivmoddi4>
 80001fc:	f8dd e004 	ldr.w	lr, [sp, #4]
 8000200:	e9dd 2302 	ldrd	r2, r3, [sp, #8]
 8000204:	b004      	add	sp, #16
 8000206:	4770      	bx	lr

08000208 <__udivmoddi4>:
 8000208:	e92d 47f0 	stmdb	sp!, {r4, r5, r6, r7, r8, r9, sl, lr}
 800020c:	9d08      	ldr	r5, [sp, #32]
 800020e:	460c      	mov	r4, r1
 8000210:	2b00      	cmp	r3, #0
 8000212:	d14e      	bne.n	80002b2 <__udivmoddi4+0xaa>
 8000214:	4694      	mov	ip, r2
 8000216:	458c      	cmp	ip, r1
 8000218:	4686      	mov	lr, r0
 800021a:	fab2 f282 	clz	r2, r2
 800021e:	d962      	bls.n	80002e6 <__udivmoddi4+0xde>
 8000220:	b14a      	cbz	r2, 8000236 <__udivmoddi4+0x2e>
 8000222:	f1c2 0320 	rsb	r3, r2, #32
 8000226:	4091      	lsls	r1, r2
 8000228:	fa20 f303 	lsr.w	r3, r0, r3
 800022c:	fa0c fc02 	lsl.w	ip, ip, r2
 8000230:	4319      	orrs	r1, r3
 8000232:	fa00 fe02 	lsl.w	lr, r0, r2
 8000236:	ea4f 471c 	mov.w	r7, ip, lsr #16
 800023a:	fa1f f68c 	uxth.w	r6, ip
 800023e:	fbb1 f4f7 	udiv	r4, r1, r7
 8000242:	ea4f 431e 	mov.w	r3, lr, lsr #16
 8000246:	fb07 1114 	mls	r1, r7, r4, r1
 800024a:	ea43 4301 	orr.w	r3, r3, r1, lsl #16
 800024e:	fb04 f106 	mul.w	r1, r4, r6
 8000252:	4299      	cmp	r1, r3
 8000254:	d90a      	bls.n	800026c <__udivmoddi4+0x64>
 8000256:	eb1c 0303 	adds.w	r3, ip, r3
 800025a:	f104 30ff 	add.w	r0, r4, #4294967295	@ 0xffffffff
 800025e:	f080 8112 	bcs.w	8000486 <__udivmoddi4+0x27e>
 8000262:	4299      	cmp	r1, r3
 8000264:	f240 810f 	bls.w	8000486 <__udivmoddi4+0x27e>
 8000268:	3c02      	subs	r4, #2
 800026a:	4463      	add	r3, ip
 800026c:	1a59      	subs	r1, r3, r1
 800026e:	fa1f f38e 	uxth.w	r3, lr
 8000272:	fbb1 f0f7 	udiv	r0, r1, r7
 8000276:	fb07 1110 	mls	r1, r7, r0, r1
 800027a:	ea43 4301 	orr.w	r3, r3, r1, lsl #16
 800027e:	fb00 f606 	mul.w	r6, r0, r6
 8000282:	429e      	cmp	r6, r3
 8000284:	d90a      	bls.n	800029c <__udivmoddi4+0x94>
 8000286:	eb1c 0303 	adds.w	r3, ip, r3
 800028a:	f100 31ff 	add.w	r1, r0, #4294967295	@ 0xffffffff
 800028e:	f080 80fc 	bcs.w	800048a <__udivmoddi4+0x282>
 8000292:	429e      	cmp	r6, r3
 8000294:	f240 80f9 	bls.w	800048a <__udivmoddi4+0x282>
 8000298:	4463      	add	r3, ip
 800029a:	3802      	subs	r0, #2
 800029c:	1b9b      	subs	r3, r3, r6
 800029e:	ea40 4004 	orr.w	r0, r0, r4, lsl #16
 80002a2:	2100      	movs	r1, #0
 80002a4:	b11d      	cbz	r5, 80002ae <__udivmoddi4+0xa6>
 80002a6:	40d3      	lsrs	r3, r2
 80002a8:	2200      	movs	r2, #0
 80002aa:	e9c5 3200 	strd	r3, r2, [r5]
 80002ae:	e8bd 87f0 	ldmia.w	sp!, {r4, r5, r6, r7, r8, r9, sl, pc}
 80002b2:	428b      	cmp	r3, r1
 80002b4:	d905      	bls.n	80002c2 <__udivmoddi4+0xba>
 80002b6:	b10d      	cbz	r5, 80002bc <__udivmoddi4+0xb4>
 80002b8:	e9c5 0100 	strd	r0, r1, [r5]
 80002bc:	2100      	movs	r1, #0
 80002be:	4608      	mov	r0, r1
 80002c0:	e7f5      	b.n	80002ae <__udivmoddi4+0xa6>
 80002c2:	fab3 f183 	clz	r1, r3
 80002c6:	2900      	cmp	r1, #0
 80002c8:	d146      	bne.n	8000358 <__udivmoddi4+0x150>
 80002ca:	42a3      	cmp	r3, r4
 80002cc:	d302      	bcc.n	80002d4 <__udivmoddi4+0xcc>
 80002ce:	4290      	cmp	r0, r2
 80002d0:	f0c0 80f0 	bcc.w	80004b4 <__udivmoddi4+0x2ac>
 80002d4:	1a86      	subs	r6, r0, r2
 80002d6:	eb64 0303 	sbc.w	r3, r4, r3
 80002da:	2001      	movs	r0, #1
 80002dc:	2d00      	cmp	r5, #0
 80002de:	d0e6      	beq.n	80002ae <__udivmoddi4+0xa6>
 80002e0:	e9c5 6300 	strd	r6, r3, [r5]
 80002e4:	e7e3      	b.n	80002ae <__udivmoddi4+0xa6>
 80002e6:	2a00      	cmp	r2, #0
 80002e8:	f040 8090 	bne.w	800040c <__udivmoddi4+0x204>
 80002ec:	eba1 040c 	sub.w	r4, r1, ip
 80002f0:	ea4f 481c 	mov.w	r8, ip, lsr #16
 80002f4:	fa1f f78c 	uxth.w	r7, ip
 80002f8:	2101      	movs	r1, #1
 80002fa:	fbb4 f6f8 	udiv	r6, r4, r8
 80002fe:	ea4f 431e 	mov.w	r3, lr, lsr #16
 8000302:	fb08 4416 	mls	r4, r8, r6, r4
 8000306:	ea43 4304 	orr.w	r3, r3, r4, lsl #16
 800030a:	fb07 f006 	mul.w	r0, r7, r6
 800030e:	4298      	cmp	r0, r3
 8000310:	d908      	bls.n	8000324 <__udivmoddi4+0x11c>
 8000312:	eb1c 0303 	adds.w	r3, ip, r3
 8000316:	f106 34ff 	add.w	r4, r6, #4294967295	@ 0xffffffff
 800031a:	d202      	bcs.n	8000322 <__udivmoddi4+0x11a>
 800031c:	4298      	cmp	r0, r3
 800031e:	f200 80cd 	bhi.w	80004bc <__udivmoddi4+0x2b4>
 8000322:	4626      	mov	r6, r4
 8000324:	1a1c      	subs	r4, r3, r0
 8000326:	fa1f f38e 	uxth.w	r3, lr
 800032a:	fbb4 f0f8 	udiv	r0, r4, r8
 800032e:	fb08 4410 	mls	r4, r8, r0, r4
 8000332:	ea43 4304 	orr.w	r3, r3, r4, lsl #16
 8000336:	fb00 f707 	mul.w	r7, r0, r7
 800033a:	429f      	cmp	r7, r3
 800033c:	d908      	bls.n	8000350 <__udivmoddi4+0x148>
 800033e:	eb1c 0303 	adds.w	r3, ip, r3
 8000342:	f100 34ff 	add.w	r4, r0, #4294967295	@ 0xffffffff
 8000346:	d202      	bcs.n	800034e <__udivmoddi4+0x146>
 8000348:	429f      	cmp	r7, r3
 800034a:	f200 80b0 	bhi.w	80004ae <__udivmoddi4+0x2a6>
 800034e:	4620      	mov	r0, r4
 8000350:	1bdb      	subs	r3, r3, r7
 8000352:	ea40 4006 	orr.w	r0, r0, r6, lsl #16
 8000356:	e7a5      	b.n	80002a4 <__udivmoddi4+0x9c>
 8000358:	f1c1 0620 	rsb	r6, r1, #32
 800035c:	408b      	lsls	r3, r1
 800035e:	fa22 f706 	lsr.w	r7, r2, r6
 8000362:	431f      	orrs	r7, r3
 8000364:	fa20 fc06 	lsr.w	ip, r0, r6
 8000368:	fa04 f301 	lsl.w	r3, r4, r1
 800036c:	ea43 030c 	orr.w	r3, r3, ip
 8000370:	40f4      	lsrs	r4, r6
 8000372:	fa00 f801 	lsl.w	r8, r0, r1
 8000376:	0c38      	lsrs	r0, r7, #16
 8000378:	ea4f 4913 	mov.w	r9, r3, lsr #16
 800037c:	fbb4 fef0 	udiv	lr, r4, r0
 8000380:	fa1f fc87 	uxth.w	ip, r7
 8000384:	fb00 441e 	mls	r4, r0, lr, r4
 8000388:	ea49 4404 	orr.w	r4, r9, r4, lsl #16
 800038c:	fb0e f90c 	mul.w	r9, lr, ip
 8000390:	45a1      	cmp	r9, r4
 8000392:	fa02 f201 	lsl.w	r2, r2, r1
 8000396:	d90a      	bls.n	80003ae <__udivmoddi4+0x1a6>
 8000398:	193c      	adds	r4, r7, r4
 800039a:	f10e 3aff 	add.w	sl, lr, #4294967295	@ 0xffffffff
 800039e:	f080 8084 	bcs.w	80004aa <__udivmoddi4+0x2a2>
 80003a2:	45a1      	cmp	r9, r4
 80003a4:	f240 8081 	bls.w	80004aa <__udivmoddi4+0x2a2>
 80003a8:	f1ae 0e02 	sub.w	lr, lr, #2
 80003ac:	443c      	add	r4, r7
 80003ae:	eba4 0409 	sub.w	r4, r4, r9
 80003b2:	fa1f f983 	uxth.w	r9, r3
 80003b6:	fbb4 f3f0 	udiv	r3, r4, r0
 80003ba:	fb00 4413 	mls	r4, r0, r3, r4
 80003be:	ea49 4404 	orr.w	r4, r9, r4, lsl #16
 80003c2:	fb03 fc0c 	mul.w	ip, r3, ip
 80003c6:	45a4      	cmp	ip, r4
 80003c8:	d907      	bls.n	80003da <__udivmoddi4+0x1d2>
 80003ca:	193c      	adds	r4, r7, r4
 80003cc:	f103 30ff 	add.w	r0, r3, #4294967295	@ 0xffffffff
 80003d0:	d267      	bcs.n	80004a2 <__udivmoddi4+0x29a>
 80003d2:	45a4      	cmp	ip, r4
 80003d4:	d965      	bls.n	80004a2 <__udivmoddi4+0x29a>
 80003d6:	3b02      	subs	r3, #2
 80003d8:	443c      	add	r4, r7
 80003da:	ea43 400e 	orr.w	r0, r3, lr, lsl #16
 80003de:	fba0 9302 	umull	r9, r3, r0, r2
 80003e2:	eba4 040c 	sub.w	r4, r4, ip
 80003e6:	429c      	cmp	r4, r3
 80003e8:	46ce      	mov	lr, r9
 80003ea:	469c      	mov	ip, r3
 80003ec:	d351      	bcc.n	8000492 <__udivmoddi4+0x28a>
 80003ee:	d04e      	beq.n	800048e <__udivmoddi4+0x286>
 80003f0:	b155      	cbz	r5, 8000408 <__udivmoddi4+0x200>
 80003f2:	ebb8 030e 	subs.w	r3, r8, lr
 80003f6:	eb64 040c 	sbc.w	r4, r4, ip
 80003fa:	fa04 f606 	lsl.w	r6, r4, r6
 80003fe:	40cb      	lsrs	r3, r1
 8000400:	431e      	orrs	r6, r3
 8000402:	40cc      	lsrs	r4, r1
 8000404:	e9c5 6400 	strd	r6, r4, [r5]
 8000408:	2100      	movs	r1, #0
 800040a:	e750      	b.n	80002ae <__udivmoddi4+0xa6>
 800040c:	f1c2 0320 	rsb	r3, r2, #32
 8000410:	fa20 f103 	lsr.w	r1, r0, r3
 8000414:	fa0c fc02 	lsl.w	ip, ip, r2
 8000418:	fa24 f303 	lsr.w	r3, r4, r3
 800041c:	4094      	lsls	r4, r2
 800041e:	430c      	orrs	r4, r1
 8000420:	ea4f 481c 	mov.w	r8, ip, lsr #16
 8000424:	fa00 fe02 	lsl.w	lr, r0, r2
 8000428:	fa1f f78c 	uxth.w	r7, ip
 800042c:	fbb3 f0f8 	udiv	r0, r3, r8
 8000430:	fb08 3110 	mls	r1, r8, r0, r3
 8000434:	0c23      	lsrs	r3, r4, #16
 8000436:	ea43 4301 	orr.w	r3, r3, r1, lsl #16
 800043a:	fb00 f107 	mul.w	r1, r0, r7
 800043e:	4299      	cmp	r1, r3
 8000440:	d908      	bls.n	8000454 <__udivmoddi4+0x24c>
 8000442:	eb1c 0303 	adds.w	r3, ip, r3
 8000446:	f100 36ff 	add.w	r6, r0, #4294967295	@ 0xffffffff
 800044a:	d22c      	bcs.n	80004a6 <__udivmoddi4+0x29e>
 800044c:	4299      	cmp	r1, r3
 800044e:	d92a      	bls.n	80004a6 <__udivmoddi4+0x29e>
 8000450:	3802      	subs	r0, #2
 8000452:	4463      	add	r3, ip
 8000454:	1a5b      	subs	r3, r3, r1
 8000456:	b2a4      	uxth	r4, r4
 8000458:	fbb3 f1f8 	udiv	r1, r3, r8
 800045c:	fb08 3311 	mls	r3, r8, r1, r3
 8000460:	ea44 4403 	orr.w	r4, r4, r3, lsl #16
 8000464:	fb01 f307 	mul.w	r3, r1, r7
 8000468:	42a3      	cmp	r3, r4
 800046a:	d908      	bls.n	800047e <__udivmoddi4+0x276>
 800046c:	eb1c 0404 	adds.w	r4, ip, r4
 8000470:	f101 36ff 	add.w	r6, r1, #4294967295	@ 0xffffffff
 8000474:	d213      	bcs.n	800049e <__udivmoddi4+0x296>
 8000476:	42a3      	cmp	r3, r4
 8000478:	d911      	bls.n	800049e <__udivmoddi4+0x296>
 800047a:	3902      	subs	r1, #2
 800047c:	4464      	add	r4, ip
 800047e:	1ae4      	subs	r4, r4, r3
 8000480:	ea41 4100 	orr.w	r1, r1, r0, lsl #16
 8000484:	e739      	b.n	80002fa <__udivmoddi4+0xf2>
 8000486:	4604      	mov	r4, r0
 8000488:	e6f0      	b.n	800026c <__udivmoddi4+0x64>
 800048a:	4608      	mov	r0, r1
 800048c:	e706      	b.n	800029c <__udivmoddi4+0x94>
 800048e:	45c8      	cmp	r8, r9
 8000490:	d2ae      	bcs.n	80003f0 <__udivmoddi4+0x1e8>
 8000492:	ebb9 0e02 	subs.w	lr, r9, r2
 8000496:	eb63 0c07 	sbc.w	ip, r3, r7
 800049a:	3801      	subs	r0, #1
 800049c:	e7a8      	b.n	80003f0 <__udivmoddi4+0x1e8>
 800049e:	4631      	mov	r1, r6
 80004a0:	e7ed      	b.n	800047e <__udivmoddi4+0x276>
 80004a2:	4603      	mov	r3, r0
 80004a4:	e799      	b.n	80003da <__udivmoddi4+0x1d2>
 80004a6:	4630      	mov	r0, r6
 80004a8:	e7d4      	b.n	8000454 <__udivmoddi4+0x24c>
 80004aa:	46d6      	mov	lr, sl
 80004ac:	e77f      	b.n	80003ae <__udivmoddi4+0x1a6>
 80004ae:	4463      	add	r3, ip
 80004b0:	3802      	subs	r0, #2
 80004b2:	e74d      	b.n	8000350 <__udivmoddi4+0x148>
 80004b4:	4606      	mov	r6, r0
 80004b6:	4623      	mov	r3, r4
 80004b8:	4608      	mov	r0, r1
 80004ba:	e70f      	b.n	80002dc <__udivmoddi4+0xd4>
 80004bc:	3e02      	subs	r6, #2
 80004be:	4463      	add	r3, ip
 80004c0:	e730      	b.n	8000324 <__udivmoddi4+0x11c>
 80004c2:	bf00      	nop

080004c4 <__aeabi_idiv0>:
 80004c4:	4770      	bx	lr
 80004c6:	bf00      	nop

080004c8 <HAL_GPIO_EXTI_Callback>:
 80004c8:	2801      	cmp	r0, #1
 80004ca:	b508      	push	{r3, lr}
 80004cc:	d109      	bne.n	80004e2 <HAL_GPIO_EXTI_Callback+0x1a>
 80004ce:	f000 fe3b 	bl	8001148 <panic_is_active>
 80004d2:	b168      	cbz	r0, 80004f0 <HAL_GPIO_EXTI_Callback+0x28>
 80004d4:	f000 fe8e 	bl	80011f4 <panic_button_set>
 80004d8:	e8bd 4008 	ldmia.w	sp!, {r3, lr}
 80004dc:	4805      	ldr	r0, [pc, #20]	@ (80004f4 <HAL_GPIO_EXTI_Callback+0x2c>)
 80004de:	f000 bc19 	b.w	8000d14 <comm_send_data>
 80004e2:	f5b0 7f00 	cmp.w	r0, #512	@ 0x200
 80004e6:	d103      	bne.n	80004f0 <HAL_GPIO_EXTI_Callback+0x28>
 80004e8:	e8bd 4008 	ldmia.w	sp!, {r3, lr}
 80004ec:	f000 bf2a 	b.w	8001344 <sensors_movement_detected>
 80004f0:	bd08      	pop	{r3, pc}
 80004f2:	bf00      	nop
 80004f4:	080040f8 	.word	0x080040f8

080004f8 <HAL_TIM_PeriodElapsedCallback>:
 80004f8:	6802      	ldr	r2, [r0, #0]
 80004fa:	4b10      	ldr	r3, [pc, #64]	@ (800053c <HAL_TIM_PeriodElapsedCallback+0x44>)
 80004fc:	429a      	cmp	r2, r3
 80004fe:	b510      	push	{r4, lr}
 8000500:	4604      	mov	r4, r0
 8000502:	d101      	bne.n	8000508 <HAL_TIM_PeriodElapsedCallback+0x10>
 8000504:	f000 fee8 	bl	80012d8 <panic_timer_elapsed>
 8000508:	6822      	ldr	r2, [r4, #0]
 800050a:	4b0d      	ldr	r3, [pc, #52]	@ (8000540 <HAL_TIM_PeriodElapsedCallback+0x48>)
 800050c:	429a      	cmp	r2, r3
 800050e:	d101      	bne.n	8000514 <HAL_TIM_PeriodElapsedCallback+0x1c>
 8000510:	f000 fd52 	bl	8000fb8 <light_level_check>
 8000514:	6822      	ldr	r2, [r4, #0]
 8000516:	4b0b      	ldr	r3, [pc, #44]	@ (8000544 <HAL_TIM_PeriodElapsedCallback+0x4c>)
 8000518:	429a      	cmp	r2, r3
 800051a:	d104      	bne.n	8000526 <HAL_TIM_PeriodElapsedCallback+0x2e>
 800051c:	f000 ff1e 	bl	800135c <sensors_movement_detected_reset>
 8000520:	4809      	ldr	r0, [pc, #36]	@ (8000548 <HAL_TIM_PeriodElapsedCallback+0x50>)
 8000522:	f003 f86d 	bl	8003600 <HAL_TIM_Base_Stop_IT>
 8000526:	6822      	ldr	r2, [r4, #0]
 8000528:	4b08      	ldr	r3, [pc, #32]	@ (800054c <HAL_TIM_PeriodElapsedCallback+0x54>)
 800052a:	429a      	cmp	r2, r3
 800052c:	d104      	bne.n	8000538 <HAL_TIM_PeriodElapsedCallback+0x40>
 800052e:	e8bd 4010 	ldmia.w	sp!, {r4, lr}
 8000532:	4807      	ldr	r0, [pc, #28]	@ (8000550 <HAL_TIM_PeriodElapsedCallback+0x58>)
 8000534:	f000 bbee 	b.w	8000d14 <comm_send_data>
 8000538:	bd10      	pop	{r4, pc}
 800053a:	bf00      	nop
 800053c:	40000400 	.word	0x40000400
 8000540:	40000800 	.word	0x40000800
 8000544:	40014000 	.word	0x40014000
 8000548:	20000128 	.word	0x20000128
 800054c:	40014800 	.word	0x40014800
 8000550:	080040fa 	.word	0x080040fa

08000554 <SystemClock_Config>:
 8000554:	b510      	push	{r4, lr}
 8000556:	b094      	sub	sp, #80	@ 0x50
 8000558:	2210      	movs	r2, #16
 800055a:	2100      	movs	r1, #0
 800055c:	a80a      	add	r0, sp, #40	@ 0x28
 800055e:	f003 fd85 	bl	800406c <memset>
 8000562:	2214      	movs	r2, #20
 8000564:	2100      	movs	r1, #0
 8000566:	a803      	add	r0, sp, #12
 8000568:	f003 fd80 	bl	800406c <memset>
 800056c:	4b1f      	ldr	r3, [pc, #124]	@ (80005ec <SystemClock_Config+0x98>)
 800056e:	2100      	movs	r1, #0
 8000570:	9101      	str	r1, [sp, #4]
 8000572:	6c1a      	ldr	r2, [r3, #64]	@ 0x40
 8000574:	f042 5280 	orr.w	r2, r2, #268435456	@ 0x10000000
 8000578:	641a      	str	r2, [r3, #64]	@ 0x40
 800057a:	6c1b      	ldr	r3, [r3, #64]	@ 0x40
 800057c:	f003 5380 	and.w	r3, r3, #268435456	@ 0x10000000
 8000580:	9301      	str	r3, [sp, #4]
 8000582:	9b01      	ldr	r3, [sp, #4]
 8000584:	4b1a      	ldr	r3, [pc, #104]	@ (80005f0 <SystemClock_Config+0x9c>)
 8000586:	9102      	str	r1, [sp, #8]
 8000588:	681a      	ldr	r2, [r3, #0]
 800058a:	f442 4240 	orr.w	r2, r2, #49152	@ 0xc000
 800058e:	601a      	str	r2, [r3, #0]
 8000590:	681b      	ldr	r3, [r3, #0]
 8000592:	f403 4340 	and.w	r3, r3, #49152	@ 0xc000
 8000596:	9302      	str	r3, [sp, #8]
 8000598:	2201      	movs	r2, #1
 800059a:	9b02      	ldr	r3, [sp, #8]
 800059c:	f44f 3380 	mov.w	r3, #65536	@ 0x10000
 80005a0:	e9cd 2308 	strd	r2, r3, [sp, #32]
 80005a4:	2402      	movs	r4, #2
 80005a6:	f44f 0380 	mov.w	r3, #4194304	@ 0x400000
 80005aa:	e9cd 430e 	strd	r4, r3, [sp, #56]	@ 0x38
 80005ae:	22c0      	movs	r2, #192	@ 0xc0
 80005b0:	2304      	movs	r3, #4
 80005b2:	e9cd 3210 	strd	r3, r2, [sp, #64]	@ 0x40
 80005b6:	9312      	str	r3, [sp, #72]	@ 0x48
 80005b8:	a808      	add	r0, sp, #32
 80005ba:	2308      	movs	r3, #8
 80005bc:	9313      	str	r3, [sp, #76]	@ 0x4c
 80005be:	f002 fd57 	bl	8003070 <HAL_RCC_OscConfig>
 80005c2:	b108      	cbz	r0, 80005c8 <SystemClock_Config+0x74>
 80005c4:	b672      	cpsid	i
 80005c6:	e7fe      	b.n	80005c6 <SystemClock_Config+0x72>
 80005c8:	230f      	movs	r3, #15
 80005ca:	e9cd 3403 	strd	r3, r4, [sp, #12]
 80005ce:	f44f 53a0 	mov.w	r3, #5120	@ 0x1400
 80005d2:	e9cd 3006 	strd	r3, r0, [sp, #24]
 80005d6:	9005      	str	r0, [sp, #20]
 80005d8:	2103      	movs	r1, #3
 80005da:	a803      	add	r0, sp, #12
 80005dc:	f002 ff24 	bl	8003428 <HAL_RCC_ClockConfig>
 80005e0:	b108      	cbz	r0, 80005e6 <SystemClock_Config+0x92>
 80005e2:	b672      	cpsid	i
 80005e4:	e7fe      	b.n	80005e4 <SystemClock_Config+0x90>
 80005e6:	b014      	add	sp, #80	@ 0x50
 80005e8:	bd10      	pop	{r4, pc}
 80005ea:	bf00      	nop
 80005ec:	40023800 	.word	0x40023800
 80005f0:	40007000 	.word	0x40007000

080005f4 <main>:
 80005f4:	b580      	push	{r7, lr}
 80005f6:	b08e      	sub	sp, #56	@ 0x38
 80005f8:	2400      	movs	r4, #0
 80005fa:	4da8      	ldr	r5, [pc, #672]	@ (800089c <main+0x2a8>)
 80005fc:	f000 fee6 	bl	80013cc <HAL_Init>
 8000600:	f7ff ffa8 	bl	8000554 <SystemClock_Config>
 8000604:	2214      	movs	r2, #20
 8000606:	2100      	movs	r1, #0
 8000608:	a809      	add	r0, sp, #36	@ 0x24
 800060a:	f003 fd2f 	bl	800406c <memset>
 800060e:	9401      	str	r4, [sp, #4]
 8000610:	6b2b      	ldr	r3, [r5, #48]	@ 0x30
 8000612:	48a3      	ldr	r0, [pc, #652]	@ (80008a0 <main+0x2ac>)
 8000614:	f043 0304 	orr.w	r3, r3, #4
 8000618:	632b      	str	r3, [r5, #48]	@ 0x30
 800061a:	6b2b      	ldr	r3, [r5, #48]	@ 0x30
 800061c:	f003 0304 	and.w	r3, r3, #4
 8000620:	9301      	str	r3, [sp, #4]
 8000622:	9b01      	ldr	r3, [sp, #4]
 8000624:	9402      	str	r4, [sp, #8]
 8000626:	6b2b      	ldr	r3, [r5, #48]	@ 0x30
 8000628:	f043 0380 	orr.w	r3, r3, #128	@ 0x80
 800062c:	632b      	str	r3, [r5, #48]	@ 0x30
 800062e:	6b2b      	ldr	r3, [r5, #48]	@ 0x30
 8000630:	f003 0380 	and.w	r3, r3, #128	@ 0x80
 8000634:	9302      	str	r3, [sp, #8]
 8000636:	9b02      	ldr	r3, [sp, #8]
 8000638:	9403      	str	r4, [sp, #12]
 800063a:	6b2b      	ldr	r3, [r5, #48]	@ 0x30
 800063c:	f043 0301 	orr.w	r3, r3, #1
 8000640:	632b      	str	r3, [r5, #48]	@ 0x30
 8000642:	6b2b      	ldr	r3, [r5, #48]	@ 0x30
 8000644:	f003 0301 	and.w	r3, r3, #1
 8000648:	9303      	str	r3, [sp, #12]
 800064a:	9b03      	ldr	r3, [sp, #12]
 800064c:	9404      	str	r4, [sp, #16]
 800064e:	6b2b      	ldr	r3, [r5, #48]	@ 0x30
 8000650:	f043 0310 	orr.w	r3, r3, #16
 8000654:	632b      	str	r3, [r5, #48]	@ 0x30
 8000656:	6b2b      	ldr	r3, [r5, #48]	@ 0x30
 8000658:	f003 0310 	and.w	r3, r3, #16
 800065c:	9304      	str	r3, [sp, #16]
 800065e:	9b04      	ldr	r3, [sp, #16]
 8000660:	9405      	str	r4, [sp, #20]
 8000662:	6b2b      	ldr	r3, [r5, #48]	@ 0x30
 8000664:	f043 0308 	orr.w	r3, r3, #8
 8000668:	632b      	str	r3, [r5, #48]	@ 0x30
 800066a:	6b2b      	ldr	r3, [r5, #48]	@ 0x30
 800066c:	f003 0308 	and.w	r3, r3, #8
 8000670:	9305      	str	r3, [sp, #20]
 8000672:	9b05      	ldr	r3, [sp, #20]
 8000674:	9406      	str	r4, [sp, #24]
 8000676:	6b2b      	ldr	r3, [r5, #48]	@ 0x30
 8000678:	f043 0302 	orr.w	r3, r3, #2
 800067c:	632b      	str	r3, [r5, #48]	@ 0x30
 800067e:	6b2b      	ldr	r3, [r5, #48]	@ 0x30
 8000680:	f003 0302 	and.w	r3, r3, #2
 8000684:	9306      	str	r3, [sp, #24]
 8000686:	4622      	mov	r2, r4
 8000688:	2180      	movs	r1, #128	@ 0x80
 800068a:	9b06      	ldr	r3, [sp, #24]
 800068c:	f001 fc16 	bl	8001ebc <HAL_GPIO_WritePin>
 8000690:	4622      	mov	r2, r4
 8000692:	4884      	ldr	r0, [pc, #528]	@ (80008a4 <main+0x2b0>)
 8000694:	f44f 5180 	mov.w	r1, #4096	@ 0x1000
 8000698:	f001 fc10 	bl	8001ebc <HAL_GPIO_WritePin>
 800069c:	f04f 0801 	mov.w	r8, #1
 80006a0:	2380      	movs	r3, #128	@ 0x80
 80006a2:	487f      	ldr	r0, [pc, #508]	@ (80008a0 <main+0x2ac>)
 80006a4:	a909      	add	r1, sp, #36	@ 0x24
 80006a6:	e9cd 3809 	strd	r3, r8, [sp, #36]	@ 0x24
 80006aa:	e9cd 440b 	strd	r4, r4, [sp, #44]	@ 0x2c
 80006ae:	f44f 5680 	mov.w	r6, #4096	@ 0x1000
 80006b2:	f001 fb3d 	bl	8001d30 <HAL_GPIO_Init>
 80006b6:	487b      	ldr	r0, [pc, #492]	@ (80008a4 <main+0x2b0>)
 80006b8:	a909      	add	r1, sp, #36	@ 0x24
 80006ba:	f44f 1788 	mov.w	r7, #1114112	@ 0x110000
 80006be:	e9cd 6809 	strd	r6, r8, [sp, #36]	@ 0x24
 80006c2:	e9cd 440b 	strd	r4, r4, [sp, #44]	@ 0x2c
 80006c6:	f001 fb33 	bl	8001d30 <HAL_GPIO_Init>
 80006ca:	f44f 7300 	mov.w	r3, #512	@ 0x200
 80006ce:	4876      	ldr	r0, [pc, #472]	@ (80008a8 <main+0x2b4>)
 80006d0:	940b      	str	r4, [sp, #44]	@ 0x2c
 80006d2:	a909      	add	r1, sp, #36	@ 0x24
 80006d4:	e9cd 3709 	strd	r3, r7, [sp, #36]	@ 0x24
 80006d8:	f001 fb2a 	bl	8001d30 <HAL_GPIO_Init>
 80006dc:	2302      	movs	r3, #2
 80006de:	4871      	ldr	r0, [pc, #452]	@ (80008a4 <main+0x2b0>)
 80006e0:	930b      	str	r3, [sp, #44]	@ 0x2c
 80006e2:	a909      	add	r1, sp, #36	@ 0x24
 80006e4:	e9cd 8709 	strd	r8, r7, [sp, #36]	@ 0x24
 80006e8:	f001 fb22 	bl	8001d30 <HAL_GPIO_Init>
 80006ec:	4622      	mov	r2, r4
 80006ee:	4621      	mov	r1, r4
 80006f0:	2006      	movs	r0, #6
 80006f2:	f001 f8c5 	bl	8001880 <HAL_NVIC_SetPriority>
 80006f6:	2006      	movs	r0, #6
 80006f8:	f001 f8f4 	bl	80018e4 <HAL_NVIC_EnableIRQ>
 80006fc:	4622      	mov	r2, r4
 80006fe:	4621      	mov	r1, r4
 8000700:	2017      	movs	r0, #23
 8000702:	f001 f8bd 	bl	8001880 <HAL_NVIC_SetPriority>
 8000706:	2017      	movs	r0, #23
 8000708:	f001 f8ec 	bl	80018e4 <HAL_NVIC_EnableIRQ>
 800070c:	9400      	str	r4, [sp, #0]
 800070e:	6b2b      	ldr	r3, [r5, #48]	@ 0x30
 8000710:	f443 1300 	orr.w	r3, r3, #2097152	@ 0x200000
 8000714:	632b      	str	r3, [r5, #48]	@ 0x30
 8000716:	6b2b      	ldr	r3, [r5, #48]	@ 0x30
 8000718:	4d64      	ldr	r5, [pc, #400]	@ (80008ac <main+0x2b8>)
 800071a:	f403 1300 	and.w	r3, r3, #2097152	@ 0x200000
 800071e:	4622      	mov	r2, r4
 8000720:	4621      	mov	r1, r4
 8000722:	9300      	str	r3, [sp, #0]
 8000724:	2011      	movs	r0, #17
 8000726:	9b00      	ldr	r3, [sp, #0]
 8000728:	f001 f8aa 	bl	8001880 <HAL_NVIC_SetPriority>
 800072c:	2011      	movs	r0, #17
 800072e:	f001 f8d9 	bl	80018e4 <HAL_NVIC_EnableIRQ>
 8000732:	2210      	movs	r2, #16
 8000734:	4621      	mov	r1, r4
 8000736:	a809      	add	r0, sp, #36	@ 0x24
 8000738:	f003 fc98 	bl	800406c <memset>
 800073c:	4b5c      	ldr	r3, [pc, #368]	@ (80008b0 <main+0x2bc>)
 800073e:	60ac      	str	r4, [r5, #8]
 8000740:	f64b 377f 	movw	r7, #47999	@ 0xbb7f
 8000744:	e9c5 3700 	strd	r3, r7, [r5]
 8000748:	4628      	mov	r0, r5
 800074a:	f240 33e7 	movw	r3, #999	@ 0x3e7
 800074e:	e9cd 4407 	strd	r4, r4, [sp, #28]
 8000752:	e9c5 3403 	strd	r3, r4, [r5, #12]
 8000756:	61ac      	str	r4, [r5, #24]
 8000758:	f003 f856 	bl	8003808 <HAL_TIM_Base_Init>
 800075c:	b108      	cbz	r0, 8000762 <main+0x16e>
 800075e:	b672      	cpsid	i
 8000760:	e7fe      	b.n	8000760 <main+0x16c>
 8000762:	a909      	add	r1, sp, #36	@ 0x24
 8000764:	4628      	mov	r0, r5
 8000766:	9609      	str	r6, [sp, #36]	@ 0x24
 8000768:	f003 f884 	bl	8003874 <HAL_TIM_ConfigClockSource>
 800076c:	b108      	cbz	r0, 8000772 <main+0x17e>
 800076e:	b672      	cpsid	i
 8000770:	e7fe      	b.n	8000770 <main+0x17c>
 8000772:	e9cd 0007 	strd	r0, r0, [sp, #28]
 8000776:	a907      	add	r1, sp, #28
 8000778:	4628      	mov	r0, r5
 800077a:	f003 f915 	bl	80039a8 <HAL_TIMEx_MasterConfigSynchronization>
 800077e:	4605      	mov	r5, r0
 8000780:	b108      	cbz	r0, 8000786 <main+0x192>
 8000782:	b672      	cpsid	i
 8000784:	e7fe      	b.n	8000784 <main+0x190>
 8000786:	2210      	movs	r2, #16
 8000788:	4601      	mov	r1, r0
 800078a:	a809      	add	r0, sp, #36	@ 0x24
 800078c:	f003 fc6e 	bl	800406c <memset>
 8000790:	4c48      	ldr	r4, [pc, #288]	@ (80008b4 <main+0x2c0>)
 8000792:	4a49      	ldr	r2, [pc, #292]	@ (80008b8 <main+0x2c4>)
 8000794:	60a5      	str	r5, [r4, #8]
 8000796:	f44f 3380 	mov.w	r3, #65536	@ 0x10000
 800079a:	e9c4 2300 	strd	r2, r3, [r4]
 800079e:	4620      	mov	r0, r4
 80007a0:	4b46      	ldr	r3, [pc, #280]	@ (80008bc <main+0x2c8>)
 80007a2:	6125      	str	r5, [r4, #16]
 80007a4:	7625      	strb	r5, [r4, #24]
 80007a6:	f884 5020 	strb.w	r5, [r4, #32]
 80007aa:	62e5      	str	r5, [r4, #44]	@ 0x2c
 80007ac:	62a3      	str	r3, [r4, #40]	@ 0x28
 80007ae:	60e5      	str	r5, [r4, #12]
 80007b0:	f8c4 801c 	str.w	r8, [r4, #28]
 80007b4:	f884 5030 	strb.w	r5, [r4, #48]	@ 0x30
 80007b8:	f8c4 8014 	str.w	r8, [r4, #20]
 80007bc:	f000 fe32 	bl	8001424 <HAL_ADC_Init>
 80007c0:	b108      	cbz	r0, 80007c6 <main+0x1d2>
 80007c2:	b672      	cpsid	i
 80007c4:	e7fe      	b.n	80007c4 <main+0x1d0>
 80007c6:	2307      	movs	r3, #7
 80007c8:	e9cd 0809 	strd	r0, r8, [sp, #36]	@ 0x24
 80007cc:	a909      	add	r1, sp, #36	@ 0x24
 80007ce:	4620      	mov	r0, r4
 80007d0:	930b      	str	r3, [sp, #44]	@ 0x2c
 80007d2:	f000 ffa7 	bl	8001724 <HAL_ADC_ConfigChannel>
 80007d6:	4603      	mov	r3, r0
 80007d8:	b108      	cbz	r0, 80007de <main+0x1ea>
 80007da:	b672      	cpsid	i
 80007dc:	e7fe      	b.n	80007dc <main+0x1e8>
 80007de:	4838      	ldr	r0, [pc, #224]	@ (80008c0 <main+0x2cc>)
 80007e0:	f8df e0f0 	ldr.w	lr, [pc, #240]	@ 80008d4 <main+0x2e0>
 80007e4:	4a37      	ldr	r2, [pc, #220]	@ (80008c4 <main+0x2d0>)
 80007e6:	6203      	str	r3, [r0, #32]
 80007e8:	e9c0 e200 	strd	lr, r2, [r0]
 80007ec:	f44f 4280 	mov.w	r2, #16384	@ 0x4000
 80007f0:	e9c0 3302 	strd	r3, r3, [r0, #8]
 80007f4:	e9c0 2304 	strd	r2, r3, [r0, #16]
 80007f8:	e9c0 3306 	strd	r3, r3, [r0, #24]
 80007fc:	f001 fc60 	bl	80020c0 <HAL_I2C_Init>
 8000800:	4605      	mov	r5, r0
 8000802:	b108      	cbz	r0, 8000808 <main+0x214>
 8000804:	b672      	cpsid	i
 8000806:	e7fe      	b.n	8000806 <main+0x212>
 8000808:	4c2f      	ldr	r4, [pc, #188]	@ (80008c8 <main+0x2d4>)
 800080a:	4601      	mov	r1, r0
 800080c:	2210      	movs	r2, #16
 800080e:	a809      	add	r0, sp, #36	@ 0x24
 8000810:	f003 fc2c 	bl	800406c <memset>
 8000814:	f8df c0c0 	ldr.w	ip, [pc, #192]	@ 80008d8 <main+0x2e4>
 8000818:	6125      	str	r5, [r4, #16]
 800081a:	f644 631f 	movw	r3, #19999	@ 0x4e1f
 800081e:	4620      	mov	r0, r4
 8000820:	e9c4 c300 	strd	ip, r3, [r4]
 8000824:	e9c4 5702 	strd	r5, r7, [r4, #8]
 8000828:	61a5      	str	r5, [r4, #24]
 800082a:	f002 ffed 	bl	8003808 <HAL_TIM_Base_Init>
 800082e:	b108      	cbz	r0, 8000834 <main+0x240>
 8000830:	b672      	cpsid	i
 8000832:	e7fe      	b.n	8000832 <main+0x23e>
 8000834:	4620      	mov	r0, r4
 8000836:	a909      	add	r1, sp, #36	@ 0x24
 8000838:	9609      	str	r6, [sp, #36]	@ 0x24
 800083a:	f003 f81b 	bl	8003874 <HAL_TIM_ConfigClockSource>
 800083e:	4604      	mov	r4, r0
 8000840:	b108      	cbz	r0, 8000846 <main+0x252>
 8000842:	b672      	cpsid	i
 8000844:	e7fe      	b.n	8000844 <main+0x250>
 8000846:	4601      	mov	r1, r0
 8000848:	2210      	movs	r2, #16
 800084a:	a809      	add	r0, sp, #36	@ 0x24
 800084c:	f003 fc0e 	bl	800406c <memset>
 8000850:	4d1e      	ldr	r5, [pc, #120]	@ (80008cc <main+0x2d8>)
 8000852:	4b1f      	ldr	r3, [pc, #124]	@ (80008d0 <main+0x2dc>)
 8000854:	60ac      	str	r4, [r5, #8]
 8000856:	e9c5 3700 	strd	r3, r7, [r5]
 800085a:	4628      	mov	r0, r5
 800085c:	f64e 235f 	movw	r3, #59999	@ 0xea5f
 8000860:	e9cd 4407 	strd	r4, r4, [sp, #28]
 8000864:	e9c5 3403 	strd	r3, r4, [r5, #12]
 8000868:	61ac      	str	r4, [r5, #24]
 800086a:	f002 ffcd 	bl	8003808 <HAL_TIM_Base_Init>
 800086e:	b108      	cbz	r0, 8000874 <main+0x280>
 8000870:	b672      	cpsid	i
 8000872:	e7fe      	b.n	8000872 <main+0x27e>
 8000874:	a909      	add	r1, sp, #36	@ 0x24
 8000876:	4628      	mov	r0, r5
 8000878:	9609      	str	r6, [sp, #36]	@ 0x24
 800087a:	f002 fffb 	bl	8003874 <HAL_TIM_ConfigClockSource>
 800087e:	b108      	cbz	r0, 8000884 <main+0x290>
 8000880:	b672      	cpsid	i
 8000882:	e7fe      	b.n	8000882 <main+0x28e>
 8000884:	2300      	movs	r3, #0
 8000886:	4811      	ldr	r0, [pc, #68]	@ (80008cc <main+0x2d8>)
 8000888:	a907      	add	r1, sp, #28
 800088a:	e9cd 3307 	strd	r3, r3, [sp, #28]
 800088e:	f003 f88b 	bl	80039a8 <HAL_TIMEx_MasterConfigSynchronization>
 8000892:	4603      	mov	r3, r0
 8000894:	b310      	cbz	r0, 80008dc <main+0x2e8>
 8000896:	b672      	cpsid	i
 8000898:	e7fe      	b.n	8000898 <main+0x2a4>
 800089a:	bf00      	nop
 800089c:	40023800 	.word	0x40023800
 80008a0:	40021000 	.word	0x40021000
 80008a4:	40020c00 	.word	0x40020c00
 80008a8:	40020800 	.word	0x40020800
 80008ac:	200001b8 	.word	0x200001b8
 80008b0:	40000400 	.word	0x40000400
 80008b4:	20000254 	.word	0x20000254
 80008b8:	40012000 	.word	0x40012000
 80008bc:	0f000001 	.word	0x0f000001
 80008c0:	20000200 	.word	0x20000200
 80008c4:	00061a80 	.word	0x00061a80
 80008c8:	20000128 	.word	0x20000128
 80008cc:	20000170 	.word	0x20000170
 80008d0:	40000800 	.word	0x40000800
 80008d4:	40005400 	.word	0x40005400
 80008d8:	40014000 	.word	0x40014000
 80008dc:	4818      	ldr	r0, [pc, #96]	@ (8000940 <main+0x34c>)
 80008de:	4c19      	ldr	r4, [pc, #100]	@ (8000944 <main+0x350>)
 80008e0:	6083      	str	r3, [r0, #8]
 80008e2:	f64b 327f 	movw	r2, #47999	@ 0xbb7f
 80008e6:	e9c0 4200 	strd	r4, r2, [r0]
 80008ea:	f241 3287 	movw	r2, #4999	@ 0x1387
 80008ee:	e9c0 2303 	strd	r2, r3, [r0, #12]
 80008f2:	6183      	str	r3, [r0, #24]
 80008f4:	f002 ff88 	bl	8003808 <HAL_TIM_Base_Init>
 80008f8:	4603      	mov	r3, r0
 80008fa:	b108      	cbz	r0, 8000900 <main+0x30c>
 80008fc:	b672      	cpsid	i
 80008fe:	e7fe      	b.n	80008fe <main+0x30a>
 8000900:	4811      	ldr	r0, [pc, #68]	@ (8000948 <main+0x354>)
 8000902:	4912      	ldr	r1, [pc, #72]	@ (800094c <main+0x358>)
 8000904:	6103      	str	r3, [r0, #16]
 8000906:	f44f 5216 	mov.w	r2, #9600	@ 0x2580
 800090a:	e9c0 1200 	strd	r1, r2, [r0]
 800090e:	220c      	movs	r2, #12
 8000910:	e9c0 3302 	strd	r3, r3, [r0, #8]
 8000914:	e9c0 2305 	strd	r2, r3, [r0, #20]
 8000918:	f44f 4300 	mov.w	r3, #32768	@ 0x8000
 800091c:	61c3      	str	r3, [r0, #28]
 800091e:	f003 f907 	bl	8003b30 <HAL_UART_Init>
 8000922:	b108      	cbz	r0, 8000928 <main+0x334>
 8000924:	b672      	cpsid	i
 8000926:	e7fe      	b.n	8000926 <main+0x332>
 8000928:	f000 fabb 	bl	8000ea2 <light_init>
 800092c:	f000 fc12 	bl	8001154 <panic_activate>
 8000930:	f000 f9f8 	bl	8000d24 <comm_init>
 8000934:	f000 fc26 	bl	8001184 <panic_main>
 8000938:	f000 fb44 	bl	8000fc4 <light_main>
 800093c:	e7fa      	b.n	8000934 <main+0x340>
 800093e:	bf00      	nop
 8000940:	200000e0 	.word	0x200000e0
 8000944:	40014800 	.word	0x40014800
 8000948:	20000098 	.word	0x20000098
 800094c:	40004400 	.word	0x40004400

08000950 <Error_Handler>:
 8000950:	b672      	cpsid	i
 8000952:	e7fe      	b.n	8000952 <Error_Handler+0x2>

08000954 <HAL_MspInit>:
 8000954:	b082      	sub	sp, #8
 8000956:	4b0d      	ldr	r3, [pc, #52]	@ (800098c <HAL_MspInit+0x38>)
 8000958:	2100      	movs	r1, #0
 800095a:	9100      	str	r1, [sp, #0]
 800095c:	6c5a      	ldr	r2, [r3, #68]	@ 0x44
 800095e:	f442 4280 	orr.w	r2, r2, #16384	@ 0x4000
 8000962:	645a      	str	r2, [r3, #68]	@ 0x44
 8000964:	6c5a      	ldr	r2, [r3, #68]	@ 0x44
 8000966:	f402 4280 	and.w	r2, r2, #16384	@ 0x4000
 800096a:	9200      	str	r2, [sp, #0]
 800096c:	9a00      	ldr	r2, [sp, #0]
 800096e:	9101      	str	r1, [sp, #4]
 8000970:	6c1a      	ldr	r2, [r3, #64]	@ 0x40
 8000972:	f042 5280 	orr.w	r2, r2, #268435456	@ 0x10000000
 8000976:	641a      	str	r2, [r3, #64]	@ 0x40
 8000978:	6c1b      	ldr	r3, [r3, #64]	@ 0x40
 800097a:	f003 5380 	and.w	r3, r3, #268435456	@ 0x10000000
 800097e:	9301      	str	r3, [sp, #4]
 8000980:	9b01      	ldr	r3, [sp, #4]
 8000982:	2007      	movs	r0, #7
 8000984:	b002      	add	sp, #8
 8000986:	f000 bf69 	b.w	800185c <HAL_NVIC_SetPriorityGrouping>
 800098a:	bf00      	nop
 800098c:	40023800 	.word	0x40023800

08000990 <HAL_ADC_MspInit>:
 8000990:	b510      	push	{r4, lr}
 8000992:	4604      	mov	r4, r0
 8000994:	b088      	sub	sp, #32
 8000996:	2214      	movs	r2, #20
 8000998:	2100      	movs	r1, #0
 800099a:	a803      	add	r0, sp, #12
 800099c:	f003 fb66 	bl	800406c <memset>
 80009a0:	6822      	ldr	r2, [r4, #0]
 80009a2:	4b12      	ldr	r3, [pc, #72]	@ (80009ec <HAL_ADC_MspInit+0x5c>)
 80009a4:	429a      	cmp	r2, r3
 80009a6:	d11e      	bne.n	80009e6 <HAL_ADC_MspInit+0x56>
 80009a8:	f503 338c 	add.w	r3, r3, #71680	@ 0x11800
 80009ac:	2100      	movs	r1, #0
 80009ae:	9101      	str	r1, [sp, #4]
 80009b0:	6c5a      	ldr	r2, [r3, #68]	@ 0x44
 80009b2:	480f      	ldr	r0, [pc, #60]	@ (80009f0 <HAL_ADC_MspInit+0x60>)
 80009b4:	f442 7280 	orr.w	r2, r2, #256	@ 0x100
 80009b8:	645a      	str	r2, [r3, #68]	@ 0x44
 80009ba:	6c5a      	ldr	r2, [r3, #68]	@ 0x44
 80009bc:	f402 7280 	and.w	r2, r2, #256	@ 0x100
 80009c0:	9201      	str	r2, [sp, #4]
 80009c2:	9a01      	ldr	r2, [sp, #4]
 80009c4:	9102      	str	r1, [sp, #8]
 80009c6:	6b1a      	ldr	r2, [r3, #48]	@ 0x30
 80009c8:	f042 0201 	orr.w	r2, r2, #1
 80009cc:	631a      	str	r2, [r3, #48]	@ 0x30
 80009ce:	6b1b      	ldr	r3, [r3, #48]	@ 0x30
 80009d0:	f003 0301 	and.w	r3, r3, #1
 80009d4:	9302      	str	r3, [sp, #8]
 80009d6:	9b02      	ldr	r3, [sp, #8]
 80009d8:	2201      	movs	r2, #1
 80009da:	2303      	movs	r3, #3
 80009dc:	a903      	add	r1, sp, #12
 80009de:	e9cd 2303 	strd	r2, r3, [sp, #12]
 80009e2:	f001 f9a5 	bl	8001d30 <HAL_GPIO_Init>
 80009e6:	b008      	add	sp, #32
 80009e8:	bd10      	pop	{r4, pc}
 80009ea:	bf00      	nop
 80009ec:	40012000 	.word	0x40012000
 80009f0:	40020000 	.word	0x40020000

080009f4 <HAL_I2C_MspInit>:
 80009f4:	b530      	push	{r4, r5, lr}
 80009f6:	4604      	mov	r4, r0
 80009f8:	b089      	sub	sp, #36	@ 0x24
 80009fa:	2214      	movs	r2, #20
 80009fc:	2100      	movs	r1, #0
 80009fe:	a803      	add	r0, sp, #12
 8000a00:	f003 fb34 	bl	800406c <memset>
 8000a04:	6822      	ldr	r2, [r4, #0]
 8000a06:	4b1b      	ldr	r3, [pc, #108]	@ (8000a74 <HAL_I2C_MspInit+0x80>)
 8000a08:	429a      	cmp	r2, r3
 8000a0a:	d131      	bne.n	8000a70 <HAL_I2C_MspInit+0x7c>
 8000a0c:	4c1a      	ldr	r4, [pc, #104]	@ (8000a78 <HAL_I2C_MspInit+0x84>)
 8000a0e:	481b      	ldr	r0, [pc, #108]	@ (8000a7c <HAL_I2C_MspInit+0x88>)
 8000a10:	2500      	movs	r5, #0
 8000a12:	9501      	str	r5, [sp, #4]
 8000a14:	6b23      	ldr	r3, [r4, #48]	@ 0x30
 8000a16:	f043 0302 	orr.w	r3, r3, #2
 8000a1a:	6323      	str	r3, [r4, #48]	@ 0x30
 8000a1c:	6b23      	ldr	r3, [r4, #48]	@ 0x30
 8000a1e:	f003 0302 	and.w	r3, r3, #2
 8000a22:	9301      	str	r3, [sp, #4]
 8000a24:	22c0      	movs	r2, #192	@ 0xc0
 8000a26:	9b01      	ldr	r3, [sp, #4]
 8000a28:	2312      	movs	r3, #18
 8000a2a:	e9cd 2303 	strd	r2, r3, [sp, #12]
 8000a2e:	2103      	movs	r1, #3
 8000a30:	2304      	movs	r3, #4
 8000a32:	e9cd 1306 	strd	r1, r3, [sp, #24]
 8000a36:	a903      	add	r1, sp, #12
 8000a38:	f001 f97a 	bl	8001d30 <HAL_GPIO_Init>
 8000a3c:	9502      	str	r5, [sp, #8]
 8000a3e:	6c23      	ldr	r3, [r4, #64]	@ 0x40
 8000a40:	f443 1300 	orr.w	r3, r3, #2097152	@ 0x200000
 8000a44:	6423      	str	r3, [r4, #64]	@ 0x40
 8000a46:	6c23      	ldr	r3, [r4, #64]	@ 0x40
 8000a48:	f403 1300 	and.w	r3, r3, #2097152	@ 0x200000
 8000a4c:	462a      	mov	r2, r5
 8000a4e:	4629      	mov	r1, r5
 8000a50:	9302      	str	r3, [sp, #8]
 8000a52:	201f      	movs	r0, #31
 8000a54:	9b02      	ldr	r3, [sp, #8]
 8000a56:	f000 ff13 	bl	8001880 <HAL_NVIC_SetPriority>
 8000a5a:	201f      	movs	r0, #31
 8000a5c:	f000 ff42 	bl	80018e4 <HAL_NVIC_EnableIRQ>
 8000a60:	2020      	movs	r0, #32
 8000a62:	462a      	mov	r2, r5
 8000a64:	4629      	mov	r1, r5
 8000a66:	f000 ff0b 	bl	8001880 <HAL_NVIC_SetPriority>
 8000a6a:	2020      	movs	r0, #32
 8000a6c:	f000 ff3a 	bl	80018e4 <HAL_NVIC_EnableIRQ>
 8000a70:	b009      	add	sp, #36	@ 0x24
 8000a72:	bd30      	pop	{r4, r5, pc}
 8000a74:	40005400 	.word	0x40005400
 8000a78:	40023800 	.word	0x40023800
 8000a7c:	40020400 	.word	0x40020400

08000a80 <HAL_TIM_Base_MspInit>:
 8000a80:	b51f      	push	{r0, r1, r2, r3, r4, lr}
 8000a82:	6803      	ldr	r3, [r0, #0]
 8000a84:	4a2d      	ldr	r2, [pc, #180]	@ (8000b3c <HAL_TIM_Base_MspInit+0xbc>)
 8000a86:	4293      	cmp	r3, r2
 8000a88:	d115      	bne.n	8000ab6 <HAL_TIM_Base_MspInit+0x36>
 8000a8a:	4b2d      	ldr	r3, [pc, #180]	@ (8000b40 <HAL_TIM_Base_MspInit+0xc0>)
 8000a8c:	2200      	movs	r2, #0
 8000a8e:	9200      	str	r2, [sp, #0]
 8000a90:	6c19      	ldr	r1, [r3, #64]	@ 0x40
 8000a92:	f041 0102 	orr.w	r1, r1, #2
 8000a96:	6419      	str	r1, [r3, #64]	@ 0x40
 8000a98:	6c1b      	ldr	r3, [r3, #64]	@ 0x40
 8000a9a:	f003 0302 	and.w	r3, r3, #2
 8000a9e:	9300      	str	r3, [sp, #0]
 8000aa0:	201d      	movs	r0, #29
 8000aa2:	4611      	mov	r1, r2
 8000aa4:	9b00      	ldr	r3, [sp, #0]
 8000aa6:	f000 feeb 	bl	8001880 <HAL_NVIC_SetPriority>
 8000aaa:	201d      	movs	r0, #29
 8000aac:	b005      	add	sp, #20
 8000aae:	f85d eb04 	ldr.w	lr, [sp], #4
 8000ab2:	f000 bf17 	b.w	80018e4 <HAL_NVIC_EnableIRQ>
 8000ab6:	4a23      	ldr	r2, [pc, #140]	@ (8000b44 <HAL_TIM_Base_MspInit+0xc4>)
 8000ab8:	4293      	cmp	r3, r2
 8000aba:	d111      	bne.n	8000ae0 <HAL_TIM_Base_MspInit+0x60>
 8000abc:	4b20      	ldr	r3, [pc, #128]	@ (8000b40 <HAL_TIM_Base_MspInit+0xc0>)
 8000abe:	2200      	movs	r2, #0
 8000ac0:	9201      	str	r2, [sp, #4]
 8000ac2:	6c19      	ldr	r1, [r3, #64]	@ 0x40
 8000ac4:	f041 0104 	orr.w	r1, r1, #4
 8000ac8:	6419      	str	r1, [r3, #64]	@ 0x40
 8000aca:	6c1b      	ldr	r3, [r3, #64]	@ 0x40
 8000acc:	f003 0304 	and.w	r3, r3, #4
 8000ad0:	9301      	str	r3, [sp, #4]
 8000ad2:	201e      	movs	r0, #30
 8000ad4:	4611      	mov	r1, r2
 8000ad6:	9b01      	ldr	r3, [sp, #4]
 8000ad8:	f000 fed2 	bl	8001880 <HAL_NVIC_SetPriority>
 8000adc:	201e      	movs	r0, #30
 8000ade:	e7e5      	b.n	8000aac <HAL_TIM_Base_MspInit+0x2c>
 8000ae0:	4a19      	ldr	r2, [pc, #100]	@ (8000b48 <HAL_TIM_Base_MspInit+0xc8>)
 8000ae2:	4293      	cmp	r3, r2
 8000ae4:	d111      	bne.n	8000b0a <HAL_TIM_Base_MspInit+0x8a>
 8000ae6:	4b16      	ldr	r3, [pc, #88]	@ (8000b40 <HAL_TIM_Base_MspInit+0xc0>)
 8000ae8:	2200      	movs	r2, #0
 8000aea:	9202      	str	r2, [sp, #8]
 8000aec:	6c59      	ldr	r1, [r3, #68]	@ 0x44
 8000aee:	f441 3180 	orr.w	r1, r1, #65536	@ 0x10000
 8000af2:	6459      	str	r1, [r3, #68]	@ 0x44
 8000af4:	6c5b      	ldr	r3, [r3, #68]	@ 0x44
 8000af6:	f403 3380 	and.w	r3, r3, #65536	@ 0x10000
 8000afa:	9302      	str	r3, [sp, #8]
 8000afc:	2018      	movs	r0, #24
 8000afe:	4611      	mov	r1, r2
 8000b00:	9b02      	ldr	r3, [sp, #8]
 8000b02:	f000 febd 	bl	8001880 <HAL_NVIC_SetPriority>
 8000b06:	2018      	movs	r0, #24
 8000b08:	e7d0      	b.n	8000aac <HAL_TIM_Base_MspInit+0x2c>
 8000b0a:	4a10      	ldr	r2, [pc, #64]	@ (8000b4c <HAL_TIM_Base_MspInit+0xcc>)
 8000b0c:	4293      	cmp	r3, r2
 8000b0e:	d111      	bne.n	8000b34 <HAL_TIM_Base_MspInit+0xb4>
 8000b10:	4b0b      	ldr	r3, [pc, #44]	@ (8000b40 <HAL_TIM_Base_MspInit+0xc0>)
 8000b12:	2200      	movs	r2, #0
 8000b14:	9203      	str	r2, [sp, #12]
 8000b16:	6c59      	ldr	r1, [r3, #68]	@ 0x44
 8000b18:	f441 2180 	orr.w	r1, r1, #262144	@ 0x40000
 8000b1c:	6459      	str	r1, [r3, #68]	@ 0x44
 8000b1e:	6c5b      	ldr	r3, [r3, #68]	@ 0x44
 8000b20:	f403 2380 	and.w	r3, r3, #262144	@ 0x40000
 8000b24:	9303      	str	r3, [sp, #12]
 8000b26:	201a      	movs	r0, #26
 8000b28:	4611      	mov	r1, r2
 8000b2a:	9b03      	ldr	r3, [sp, #12]
 8000b2c:	f000 fea8 	bl	8001880 <HAL_NVIC_SetPriority>
 8000b30:	201a      	movs	r0, #26
 8000b32:	e7bb      	b.n	8000aac <HAL_TIM_Base_MspInit+0x2c>
 8000b34:	b005      	add	sp, #20
 8000b36:	f85d fb04 	ldr.w	pc, [sp], #4
 8000b3a:	bf00      	nop
 8000b3c:	40000400 	.word	0x40000400
 8000b40:	40023800 	.word	0x40023800
 8000b44:	40000800 	.word	0x40000800
 8000b48:	40014000 	.word	0x40014000
 8000b4c:	40014800 	.word	0x40014800

08000b50 <HAL_UART_MspInit>:
 8000b50:	b570      	push	{r4, r5, r6, lr}
 8000b52:	4606      	mov	r6, r0
 8000b54:	b088      	sub	sp, #32
 8000b56:	2214      	movs	r2, #20
 8000b58:	2100      	movs	r1, #0
 8000b5a:	a803      	add	r0, sp, #12
 8000b5c:	f003 fa86 	bl	800406c <memset>
 8000b60:	6832      	ldr	r2, [r6, #0]
 8000b62:	4b24      	ldr	r3, [pc, #144]	@ (8000bf4 <HAL_UART_MspInit+0xa4>)
 8000b64:	429a      	cmp	r2, r3
 8000b66:	d143      	bne.n	8000bf0 <HAL_UART_MspInit+0xa0>
 8000b68:	2500      	movs	r5, #0
 8000b6a:	f503 33fa 	add.w	r3, r3, #128000	@ 0x1f400
 8000b6e:	9501      	str	r5, [sp, #4]
 8000b70:	6c1a      	ldr	r2, [r3, #64]	@ 0x40
 8000b72:	4821      	ldr	r0, [pc, #132]	@ (8000bf8 <HAL_UART_MspInit+0xa8>)
 8000b74:	4c21      	ldr	r4, [pc, #132]	@ (8000bfc <HAL_UART_MspInit+0xac>)
 8000b76:	f442 3200 	orr.w	r2, r2, #131072	@ 0x20000
 8000b7a:	641a      	str	r2, [r3, #64]	@ 0x40
 8000b7c:	6c1a      	ldr	r2, [r3, #64]	@ 0x40
 8000b7e:	f402 3200 	and.w	r2, r2, #131072	@ 0x20000
 8000b82:	9201      	str	r2, [sp, #4]
 8000b84:	9a01      	ldr	r2, [sp, #4]
 8000b86:	9502      	str	r5, [sp, #8]
 8000b88:	6b1a      	ldr	r2, [r3, #48]	@ 0x30
 8000b8a:	f042 0201 	orr.w	r2, r2, #1
 8000b8e:	631a      	str	r2, [r3, #48]	@ 0x30
 8000b90:	6b1b      	ldr	r3, [r3, #48]	@ 0x30
 8000b92:	f003 0301 	and.w	r3, r3, #1
 8000b96:	9302      	str	r3, [sp, #8]
 8000b98:	9b02      	ldr	r3, [sp, #8]
 8000b9a:	220c      	movs	r2, #12
 8000b9c:	2302      	movs	r3, #2
 8000b9e:	e9cd 2303 	strd	r2, r3, [sp, #12]
 8000ba2:	2103      	movs	r1, #3
 8000ba4:	2307      	movs	r3, #7
 8000ba6:	e9cd 1306 	strd	r1, r3, [sp, #24]
 8000baa:	a903      	add	r1, sp, #12
 8000bac:	f001 f8c0 	bl	8001d30 <HAL_GPIO_Init>
 8000bb0:	4813      	ldr	r0, [pc, #76]	@ (8000c00 <HAL_UART_MspInit+0xb0>)
 8000bb2:	f04f 6300 	mov.w	r3, #134217728	@ 0x8000000
 8000bb6:	e9c4 0300 	strd	r0, r3, [r4]
 8000bba:	2340      	movs	r3, #64	@ 0x40
 8000bbc:	e9c4 3502 	strd	r3, r5, [r4, #8]
 8000bc0:	4620      	mov	r0, r4
 8000bc2:	f44f 6380 	mov.w	r3, #1024	@ 0x400
 8000bc6:	e9c4 3504 	strd	r3, r5, [r4, #16]
 8000bca:	e9c4 5506 	strd	r5, r5, [r4, #24]
 8000bce:	e9c4 5508 	strd	r5, r5, [r4, #32]
 8000bd2:	f000 fee3 	bl	800199c <HAL_DMA_Init>
 8000bd6:	b108      	cbz	r0, 8000bdc <HAL_UART_MspInit+0x8c>
 8000bd8:	f7ff feba 	bl	8000950 <Error_Handler>
 8000bdc:	2200      	movs	r2, #0
 8000bde:	63b4      	str	r4, [r6, #56]	@ 0x38
 8000be0:	2026      	movs	r0, #38	@ 0x26
 8000be2:	4611      	mov	r1, r2
 8000be4:	63a6      	str	r6, [r4, #56]	@ 0x38
 8000be6:	f000 fe4b 	bl	8001880 <HAL_NVIC_SetPriority>
 8000bea:	2026      	movs	r0, #38	@ 0x26
 8000bec:	f000 fe7a 	bl	80018e4 <HAL_NVIC_EnableIRQ>
 8000bf0:	b008      	add	sp, #32
 8000bf2:	bd70      	pop	{r4, r5, r6, pc}
 8000bf4:	40004400 	.word	0x40004400
 8000bf8:	40020000 	.word	0x40020000
 8000bfc:	20000038 	.word	0x20000038
 8000c00:	400260a0 	.word	0x400260a0

08000c04 <NMI_Handler>:
 8000c04:	e7fe      	b.n	8000c04 <NMI_Handler>

08000c06 <HardFault_Handler>:
 8000c06:	e7fe      	b.n	8000c06 <HardFault_Handler>

08000c08 <MemManage_Handler>:
 8000c08:	e7fe      	b.n	8000c08 <MemManage_Handler>

08000c0a <BusFault_Handler>:
 8000c0a:	e7fe      	b.n	8000c0a <BusFault_Handler>

08000c0c <UsageFault_Handler>:
 8000c0c:	e7fe      	b.n	8000c0c <UsageFault_Handler>

08000c0e <SVC_Handler>:
 8000c0e:	4770      	bx	lr

08000c10 <DebugMon_Handler>:
 8000c10:	4770      	bx	lr

08000c12 <PendSV_Handler>:
 8000c12:	4770      	bx	lr

08000c14 <SysTick_Handler>:
 8000c14:	f000 bbf4 	b.w	8001400 <HAL_IncTick>

08000c18 <EXTI0_IRQHandler>:
 8000c18:	2001      	movs	r0, #1
 8000c1a:	f001 b955 	b.w	8001ec8 <HAL_GPIO_EXTI_IRQHandler>
	...

08000c20 <DMA1_Stream6_IRQHandler>:
 8000c20:	4801      	ldr	r0, [pc, #4]	@ (8000c28 <DMA1_Stream6_IRQHandler+0x8>)
 8000c22:	f000 bfc3 	b.w	8001bac <HAL_DMA_IRQHandler>
 8000c26:	bf00      	nop
 8000c28:	20000038 	.word	0x20000038

08000c2c <EXTI9_5_IRQHandler>:
 8000c2c:	f44f 7000 	mov.w	r0, #512	@ 0x200
 8000c30:	f001 b94a 	b.w	8001ec8 <HAL_GPIO_EXTI_IRQHandler>

08000c34 <TIM1_BRK_TIM9_IRQHandler>:
 8000c34:	4801      	ldr	r0, [pc, #4]	@ (8000c3c <TIM1_BRK_TIM9_IRQHandler+0x8>)
 8000c36:	f002 bcff 	b.w	8003638 <HAL_TIM_IRQHandler>
 8000c3a:	bf00      	nop
 8000c3c:	20000128 	.word	0x20000128

08000c40 <TIM1_TRG_COM_TIM11_IRQHandler>:
 8000c40:	4801      	ldr	r0, [pc, #4]	@ (8000c48 <TIM1_TRG_COM_TIM11_IRQHandler+0x8>)
 8000c42:	f002 bcf9 	b.w	8003638 <HAL_TIM_IRQHandler>
 8000c46:	bf00      	nop
 8000c48:	200000e0 	.word	0x200000e0

08000c4c <TIM3_IRQHandler>:
 8000c4c:	4801      	ldr	r0, [pc, #4]	@ (8000c54 <TIM3_IRQHandler+0x8>)
 8000c4e:	f002 bcf3 	b.w	8003638 <HAL_TIM_IRQHandler>
 8000c52:	bf00      	nop
 8000c54:	200001b8 	.word	0x200001b8

08000c58 <TIM4_IRQHandler>:
 8000c58:	4801      	ldr	r0, [pc, #4]	@ (8000c60 <TIM4_IRQHandler+0x8>)
 8000c5a:	f002 bced 	b.w	8003638 <HAL_TIM_IRQHandler>
 8000c5e:	bf00      	nop
 8000c60:	20000170 	.word	0x20000170

08000c64 <I2C1_EV_IRQHandler>:
 8000c64:	4801      	ldr	r0, [pc, #4]	@ (8000c6c <I2C1_EV_IRQHandler+0x8>)
 8000c66:	f001 bd17 	b.w	8002698 <HAL_I2C_EV_IRQHandler>
 8000c6a:	bf00      	nop
 8000c6c:	20000200 	.word	0x20000200

08000c70 <I2C1_ER_IRQHandler>:
 8000c70:	4801      	ldr	r0, [pc, #4]	@ (8000c78 <I2C1_ER_IRQHandler+0x8>)
 8000c72:	f002 b961 	b.w	8002f38 <HAL_I2C_ER_IRQHandler>
 8000c76:	bf00      	nop
 8000c78:	20000200 	.word	0x20000200

08000c7c <USART2_IRQHandler>:
 8000c7c:	4801      	ldr	r0, [pc, #4]	@ (8000c84 <USART2_IRQHandler+0x8>)
 8000c7e:	f003 b881 	b.w	8003d84 <HAL_UART_IRQHandler>
 8000c82:	bf00      	nop
 8000c84:	20000098 	.word	0x20000098

08000c88 <SystemInit>:
 8000c88:	4a03      	ldr	r2, [pc, #12]	@ (8000c98 <SystemInit+0x10>)
 8000c8a:	f8d2 3088 	ldr.w	r3, [r2, #136]	@ 0x88
 8000c8e:	f443 0370 	orr.w	r3, r3, #15728640	@ 0xf00000
 8000c92:	f8c2 3088 	str.w	r3, [r2, #136]	@ 0x88
 8000c96:	4770      	bx	lr
 8000c98:	e000ed00 	.word	0xe000ed00

08000c9c <Reset_Handler>:
 8000c9c:	f8df d034 	ldr.w	sp, [pc, #52]	@ 8000cd4 <LoopFillZerobss+0xe>
 8000ca0:	f7ff fff2 	bl	8000c88 <SystemInit>
 8000ca4:	480c      	ldr	r0, [pc, #48]	@ (8000cd8 <LoopFillZerobss+0x12>)
 8000ca6:	490d      	ldr	r1, [pc, #52]	@ (8000cdc <LoopFillZerobss+0x16>)
 8000ca8:	4a0d      	ldr	r2, [pc, #52]	@ (8000ce0 <LoopFillZerobss+0x1a>)
 8000caa:	2300      	movs	r3, #0
 8000cac:	e002      	b.n	8000cb4 <LoopCopyDataInit>

08000cae <CopyDataInit>:
 8000cae:	58d4      	ldr	r4, [r2, r3]
 8000cb0:	50c4      	str	r4, [r0, r3]
 8000cb2:	3304      	adds	r3, #4

08000cb4 <LoopCopyDataInit>:
 8000cb4:	18c4      	adds	r4, r0, r3
 8000cb6:	428c      	cmp	r4, r1
 8000cb8:	d3f9      	bcc.n	8000cae <CopyDataInit>
 8000cba:	4a0a      	ldr	r2, [pc, #40]	@ (8000ce4 <LoopFillZerobss+0x1e>)
 8000cbc:	4c0a      	ldr	r4, [pc, #40]	@ (8000ce8 <LoopFillZerobss+0x22>)
 8000cbe:	2300      	movs	r3, #0
 8000cc0:	e001      	b.n	8000cc6 <LoopFillZerobss>

08000cc2 <FillZerobss>:
 8000cc2:	6013      	str	r3, [r2, #0]
 8000cc4:	3204      	adds	r2, #4

08000cc6 <LoopFillZerobss>:
 8000cc6:	42a2      	cmp	r2, r4
 8000cc8:	d3fb      	bcc.n	8000cc2 <FillZerobss>
 8000cca:	f003 f9d7 	bl	800407c <__libc_init_array>
 8000cce:	f7ff fc91 	bl	80005f4 <main>
 8000cd2:	4770      	bx	lr
 8000cd4:	20020000 	.word	0x20020000
 8000cd8:	20000000 	.word	0x20000000
 8000cdc:	2000001c 	.word	0x2000001c
 8000ce0:	0800412c 	.word	0x0800412c
 8000ce4:	2000001c 	.word	0x2000001c
 8000ce8:	200002c4 	.word	0x200002c4

08000cec <ADC_IRQHandler>:
 8000cec:	e7fe      	b.n	8000cec <ADC_IRQHandler>
	...

08000cf0 <HAL_UART_RxCpltCallback>:
 8000cf0:	b510      	push	{r4, lr}
 8000cf2:	4c06      	ldr	r4, [pc, #24]	@ (8000d0c <HAL_UART_RxCpltCallback+0x1c>)
 8000cf4:	2102      	movs	r1, #2
 8000cf6:	4620      	mov	r0, r4
 8000cf8:	f000 f82a 	bl	8000d50 <protocol_interpret_cmd_packet>
 8000cfc:	4621      	mov	r1, r4
 8000cfe:	4804      	ldr	r0, [pc, #16]	@ (8000d10 <HAL_UART_RxCpltCallback+0x20>)
 8000d00:	e8bd 4010 	ldmia.w	sp!, {r4, lr}
 8000d04:	2202      	movs	r2, #2
 8000d06:	f003 b9a0 	b.w	800404a <HAL_UART_Receive_IT>
 8000d0a:	bf00      	nop
 8000d0c:	2000029c 	.word	0x2000029c
 8000d10:	20000098 	.word	0x20000098

08000d14 <comm_send_data>:
 8000d14:	4601      	mov	r1, r0
 8000d16:	2202      	movs	r2, #2
 8000d18:	4801      	ldr	r0, [pc, #4]	@ (8000d20 <comm_send_data+0xc>)
 8000d1a:	f002 bf39 	b.w	8003b90 <HAL_UART_Transmit_DMA>
 8000d1e:	bf00      	nop
 8000d20:	20000098 	.word	0x20000098

08000d24 <comm_init>:
 8000d24:	b510      	push	{r4, lr}
 8000d26:	4c07      	ldr	r4, [pc, #28]	@ (8000d44 <comm_init+0x20>)
 8000d28:	4620      	mov	r0, r4
 8000d2a:	f002 fc69 	bl	8003600 <HAL_TIM_Base_Stop_IT>
 8000d2e:	4620      	mov	r0, r4
 8000d30:	f002 fc34 	bl	800359c <HAL_TIM_Base_Start_IT>
 8000d34:	e8bd 4010 	ldmia.w	sp!, {r4, lr}
 8000d38:	4903      	ldr	r1, [pc, #12]	@ (8000d48 <comm_init+0x24>)
 8000d3a:	4804      	ldr	r0, [pc, #16]	@ (8000d4c <comm_init+0x28>)
 8000d3c:	2202      	movs	r2, #2
 8000d3e:	f003 b984 	b.w	800404a <HAL_UART_Receive_IT>
 8000d42:	bf00      	nop
 8000d44:	200000e0 	.word	0x200000e0
 8000d48:	2000029c 	.word	0x2000029c
 8000d4c:	20000098 	.word	0x20000098

08000d50 <protocol_interpret_cmd_packet>:
 8000d50:	b508      	push	{r3, lr}
 8000d52:	7803      	ldrb	r3, [r0, #0]
 8000d54:	2b51      	cmp	r3, #81	@ 0x51
 8000d56:	d130      	bne.n	8000dba <protocol_interpret_cmd_packet+0x6a>
 8000d58:	7843      	ldrb	r3, [r0, #1]
 8000d5a:	3b01      	subs	r3, #1
 8000d5c:	2b11      	cmp	r3, #17
 8000d5e:	d82c      	bhi.n	8000dba <protocol_interpret_cmd_packet+0x6a>
 8000d60:	e8df f003 	tbb	[pc, r3]
 8000d64:	172b1309 	.word	0x172b1309
 8000d68:	1b2b2b2b 	.word	0x1b2b2b2b
 8000d6c:	2b2b2b2b 	.word	0x2b2b2b2b
 8000d70:	1f2b2b2b 	.word	0x1f2b2b2b
 8000d74:	2723      	.short	0x2723
 8000d76:	4811      	ldr	r0, [pc, #68]	@ (8000dbc <protocol_interpret_cmd_packet+0x6c>)
 8000d78:	2201      	movs	r2, #1
 8000d7a:	f44f 5180 	mov.w	r1, #4096	@ 0x1000
 8000d7e:	f001 f89d 	bl	8001ebc <HAL_GPIO_WritePin>
 8000d82:	e8bd 4008 	ldmia.w	sp!, {r3, lr}
 8000d86:	f000 bdcd 	b.w	8001924 <HAL_NVIC_SystemReset>
 8000d8a:	e8bd 4008 	ldmia.w	sp!, {r3, lr}
 8000d8e:	f000 b9e1 	b.w	8001154 <panic_activate>
 8000d92:	e8bd 4008 	ldmia.w	sp!, {r3, lr}
 8000d96:	f000 b9ed 	b.w	8001174 <panic_deactivate>
 8000d9a:	e8bd 4008 	ldmia.w	sp!, {r3, lr}
 8000d9e:	f000 b8df 	b.w	8000f60 <light_activate>
 8000da2:	e8bd 4008 	ldmia.w	sp!, {r3, lr}
 8000da6:	f000 b8f7 	b.w	8000f98 <light_deactivate>
 8000daa:	e8bd 4008 	ldmia.w	sp!, {r3, lr}
 8000dae:	f000 badb 	b.w	8001368 <sensors_movement_sensor_on>
 8000db2:	e8bd 4008 	ldmia.w	sp!, {r3, lr}
 8000db6:	f000 bae2 	b.w	800137e <sensors_movement_sensor_off>
 8000dba:	bd08      	pop	{r3, pc}
 8000dbc:	40020c00 	.word	0x40020c00

08000dc0 <light_power_on>:
 8000dc0:	b508      	push	{r3, lr}
 8000dc2:	2201      	movs	r2, #1
 8000dc4:	210a      	movs	r1, #10
 8000dc6:	200b      	movs	r0, #11
 8000dc8:	f000 f97a 	bl	80010c0 <light_i2c_write_single_register>
 8000dcc:	2802      	cmp	r0, #2
 8000dce:	d103      	bne.n	8000dd8 <light_power_on+0x18>
 8000dd0:	e8bd 4008 	ldmia.w	sp!, {r3, lr}
 8000dd4:	f7ff bdbc 	b.w	8000950 <Error_Handler>
 8000dd8:	bd08      	pop	{r3, pc}

08000dda <light_shutdown>:
 8000dda:	b508      	push	{r3, lr}
 8000ddc:	2200      	movs	r2, #0
 8000dde:	210a      	movs	r1, #10
 8000de0:	200b      	movs	r0, #11
 8000de2:	f000 f96d 	bl	80010c0 <light_i2c_write_single_register>
 8000de6:	2802      	cmp	r0, #2
 8000de8:	d103      	bne.n	8000df2 <light_shutdown+0x18>
 8000dea:	e8bd 4008 	ldmia.w	sp!, {r3, lr}
 8000dee:	f7ff bdaf 	b.w	8000950 <Error_Handler>
 8000df2:	bd08      	pop	{r3, pc}

08000df4 <light_turn_on_frame>:
 8000df4:	b508      	push	{r3, lr}
 8000df6:	4a06      	ldr	r2, [pc, #24]	@ (8000e10 <light_turn_on_frame+0x1c>)
 8000df8:	2312      	movs	r3, #18
 8000dfa:	2100      	movs	r1, #0
 8000dfc:	f000 f978 	bl	80010f0 <light_i2c_send_data>
 8000e00:	2802      	cmp	r0, #2
 8000e02:	d103      	bne.n	8000e0c <light_turn_on_frame+0x18>
 8000e04:	e8bd 4008 	ldmia.w	sp!, {r3, lr}
 8000e08:	f7ff bda2 	b.w	8000950 <Error_Handler>
 8000e0c:	bd08      	pop	{r3, pc}
 8000e0e:	bf00      	nop
 8000e10:	20000004 	.word	0x20000004

08000e14 <light_turn_off_frame>:
 8000e14:	2100      	movs	r1, #0
 8000e16:	b508      	push	{r3, lr}
 8000e18:	4a05      	ldr	r2, [pc, #20]	@ (8000e30 <light_turn_off_frame+0x1c>)
 8000e1a:	2312      	movs	r3, #18
 8000e1c:	4608      	mov	r0, r1
 8000e1e:	f000 f967 	bl	80010f0 <light_i2c_send_data>
 8000e22:	2802      	cmp	r0, #2
 8000e24:	d103      	bne.n	8000e2e <light_turn_off_frame+0x1a>
 8000e26:	e8bd 4008 	ldmia.w	sp!, {r3, lr}
 8000e2a:	f7ff bd91 	b.w	8000950 <Error_Handler>
 8000e2e:	bd08      	pop	{r3, pc}
 8000e30:	200002a4 	.word	0x200002a4

08000e34 <light_set_intensity>:
 8000e34:	b510      	push	{r4, lr}
 8000e36:	b0a4      	sub	sp, #144	@ 0x90
 8000e38:	4604      	mov	r4, r0
 8000e3a:	2290      	movs	r2, #144	@ 0x90
 8000e3c:	4668      	mov	r0, sp
 8000e3e:	f003 f915 	bl	800406c <memset>
 8000e42:	2390      	movs	r3, #144	@ 0x90
 8000e44:	466a      	mov	r2, sp
 8000e46:	2124      	movs	r1, #36	@ 0x24
 8000e48:	4620      	mov	r0, r4
 8000e4a:	f000 f951 	bl	80010f0 <light_i2c_send_data>
 8000e4e:	b024      	add	sp, #144	@ 0x90
 8000e50:	bd10      	pop	{r4, pc}

08000e52 <light_default_state>:
 8000e52:	2200      	movs	r2, #0
 8000e54:	b510      	push	{r4, lr}
 8000e56:	4611      	mov	r1, r2
 8000e58:	4604      	mov	r4, r0
 8000e5a:	200b      	movs	r0, #11
 8000e5c:	f000 f930 	bl	80010c0 <light_i2c_write_single_register>
 8000e60:	2802      	cmp	r0, #2
 8000e62:	d101      	bne.n	8000e68 <light_default_state+0x16>
 8000e64:	f7ff fd74 	bl	8000950 <Error_Handler>
 8000e68:	2200      	movs	r2, #0
 8000e6a:	2101      	movs	r1, #1
 8000e6c:	200b      	movs	r0, #11
 8000e6e:	f000 f927 	bl	80010c0 <light_i2c_write_single_register>
 8000e72:	2802      	cmp	r0, #2
 8000e74:	d101      	bne.n	8000e7a <light_default_state+0x28>
 8000e76:	f7ff fd6b 	bl	8000950 <Error_Handler>
 8000e7a:	2200      	movs	r2, #0
 8000e7c:	2105      	movs	r1, #5
 8000e7e:	200b      	movs	r0, #11
 8000e80:	f000 f91e 	bl	80010c0 <light_i2c_write_single_register>
 8000e84:	2802      	cmp	r0, #2
 8000e86:	d101      	bne.n	8000e8c <light_default_state+0x3a>
 8000e88:	f7ff fd62 	bl	8000950 <Error_Handler>
 8000e8c:	2000      	movs	r0, #0
 8000e8e:	f7ff ffb1 	bl	8000df4 <light_turn_on_frame>
 8000e92:	4621      	mov	r1, r4
 8000e94:	2000      	movs	r0, #0
 8000e96:	f7ff ffcd 	bl	8000e34 <light_set_intensity>
 8000e9a:	e8bd 4010 	ldmia.w	sp!, {r4, lr}
 8000e9e:	f7ff bf8f 	b.w	8000dc0 <light_power_on>

08000ea2 <light_init>:
 8000ea2:	b508      	push	{r3, lr}
 8000ea4:	2064      	movs	r0, #100	@ 0x64
 8000ea6:	f7ff ffd4 	bl	8000e52 <light_default_state>
 8000eaa:	2000      	movs	r0, #0
 8000eac:	f7ff ffb2 	bl	8000e14 <light_turn_off_frame>
 8000eb0:	2001      	movs	r0, #1
 8000eb2:	f7ff ff9f 	bl	8000df4 <light_turn_on_frame>
 8000eb6:	2002      	movs	r0, #2
 8000eb8:	f7ff ff9c 	bl	8000df4 <light_turn_on_frame>
 8000ebc:	2003      	movs	r0, #3
 8000ebe:	f7ff ff99 	bl	8000df4 <light_turn_on_frame>
 8000ec2:	2004      	movs	r0, #4
 8000ec4:	f7ff ff96 	bl	8000df4 <light_turn_on_frame>
 8000ec8:	2005      	movs	r0, #5
 8000eca:	f7ff ff93 	bl	8000df4 <light_turn_on_frame>
 8000ece:	2006      	movs	r0, #6
 8000ed0:	f7ff ff90 	bl	8000df4 <light_turn_on_frame>
 8000ed4:	2007      	movs	r0, #7
 8000ed6:	f7ff ff8d 	bl	8000df4 <light_turn_on_frame>
 8000eda:	2169      	movs	r1, #105	@ 0x69
 8000edc:	2001      	movs	r0, #1
 8000ede:	f7ff ffa9 	bl	8000e34 <light_set_intensity>
 8000ee2:	2182      	movs	r1, #130	@ 0x82
 8000ee4:	2002      	movs	r0, #2
 8000ee6:	f7ff ffa5 	bl	8000e34 <light_set_intensity>
 8000eea:	219b      	movs	r1, #155	@ 0x9b
 8000eec:	2003      	movs	r0, #3
 8000eee:	f7ff ffa1 	bl	8000e34 <light_set_intensity>
 8000ef2:	21b4      	movs	r1, #180	@ 0xb4
 8000ef4:	2004      	movs	r0, #4
 8000ef6:	f7ff ff9d 	bl	8000e34 <light_set_intensity>
 8000efa:	21cd      	movs	r1, #205	@ 0xcd
 8000efc:	2005      	movs	r0, #5
 8000efe:	f7ff ff99 	bl	8000e34 <light_set_intensity>
 8000f02:	21e6      	movs	r1, #230	@ 0xe6
 8000f04:	2006      	movs	r0, #6
 8000f06:	f7ff ff95 	bl	8000e34 <light_set_intensity>
 8000f0a:	21ff      	movs	r1, #255	@ 0xff
 8000f0c:	2007      	movs	r0, #7
 8000f0e:	f7ff ff91 	bl	8000e34 <light_set_intensity>
 8000f12:	e8bd 4008 	ldmia.w	sp!, {r3, lr}
 8000f16:	f7ff bf53 	b.w	8000dc0 <light_power_on>

08000f1a <light_transition_to_max>:
 8000f1a:	b508      	push	{r3, lr}
 8000f1c:	f7ff ff5d 	bl	8000dda <light_shutdown>
 8000f20:	2208      	movs	r2, #8
 8000f22:	2100      	movs	r1, #0
 8000f24:	200b      	movs	r0, #11
 8000f26:	f000 f8cb 	bl	80010c0 <light_i2c_write_single_register>
 8000f2a:	2802      	cmp	r0, #2
 8000f2c:	d101      	bne.n	8000f32 <light_transition_to_max+0x18>
 8000f2e:	f7ff fd0f 	bl	8000950 <Error_Handler>
 8000f32:	2217      	movs	r2, #23
 8000f34:	2102      	movs	r1, #2
 8000f36:	200b      	movs	r0, #11
 8000f38:	f000 f8c2 	bl	80010c0 <light_i2c_write_single_register>
 8000f3c:	2802      	cmp	r0, #2
 8000f3e:	d101      	bne.n	8000f44 <light_transition_to_max+0x2a>
 8000f40:	f7ff fd06 	bl	8000950 <Error_Handler>
 8000f44:	221e      	movs	r2, #30
 8000f46:	2103      	movs	r1, #3
 8000f48:	200b      	movs	r0, #11
 8000f4a:	f000 f8b9 	bl	80010c0 <light_i2c_write_single_register>
 8000f4e:	2802      	cmp	r0, #2
 8000f50:	d101      	bne.n	8000f56 <light_transition_to_max+0x3c>
 8000f52:	f7ff fcfd 	bl	8000950 <Error_Handler>
 8000f56:	e8bd 4008 	ldmia.w	sp!, {r3, lr}
 8000f5a:	f7ff bf31 	b.w	8000dc0 <light_power_on>
	...

08000f60 <light_activate>:
 8000f60:	4b09      	ldr	r3, [pc, #36]	@ (8000f88 <light_activate+0x28>)
 8000f62:	b510      	push	{r4, lr}
 8000f64:	2401      	movs	r4, #1
 8000f66:	701c      	strb	r4, [r3, #0]
 8000f68:	f000 f9e0 	bl	800132c <sensors_light_sensor_start>
 8000f6c:	4b07      	ldr	r3, [pc, #28]	@ (8000f8c <light_activate+0x2c>)
 8000f6e:	4808      	ldr	r0, [pc, #32]	@ (8000f90 <light_activate+0x30>)
 8000f70:	701c      	strb	r4, [r3, #0]
 8000f72:	6802      	ldr	r2, [r0, #0]
 8000f74:	4b07      	ldr	r3, [pc, #28]	@ (8000f94 <light_activate+0x34>)
 8000f76:	701c      	strb	r4, [r3, #0]
 8000f78:	6913      	ldr	r3, [r2, #16]
 8000f7a:	f023 0301 	bic.w	r3, r3, #1
 8000f7e:	e8bd 4010 	ldmia.w	sp!, {r4, lr}
 8000f82:	6113      	str	r3, [r2, #16]
 8000f84:	f002 bb0a 	b.w	800359c <HAL_TIM_Base_Start_IT>
 8000f88:	200002a3 	.word	0x200002a3
 8000f8c:	200002a2 	.word	0x200002a2
 8000f90:	20000170 	.word	0x20000170
 8000f94:	200002a1 	.word	0x200002a1

08000f98 <light_deactivate>:
 8000f98:	b508      	push	{r3, lr}
 8000f9a:	4b05      	ldr	r3, [pc, #20]	@ (8000fb0 <light_deactivate+0x18>)
 8000f9c:	2200      	movs	r2, #0
 8000f9e:	701a      	strb	r2, [r3, #0]
 8000fa0:	f000 f9ca 	bl	8001338 <sensors_light_sensor_stop>
 8000fa4:	e8bd 4008 	ldmia.w	sp!, {r3, lr}
 8000fa8:	4802      	ldr	r0, [pc, #8]	@ (8000fb4 <light_deactivate+0x1c>)
 8000faa:	f002 bb29 	b.w	8003600 <HAL_TIM_Base_Stop_IT>
 8000fae:	bf00      	nop
 8000fb0:	200002a3 	.word	0x200002a3
 8000fb4:	20000170 	.word	0x20000170

08000fb8 <light_level_check>:
 8000fb8:	4b01      	ldr	r3, [pc, #4]	@ (8000fc0 <light_level_check+0x8>)
 8000fba:	2201      	movs	r2, #1
 8000fbc:	701a      	strb	r2, [r3, #0]
 8000fbe:	4770      	bx	lr
 8000fc0:	200002a2 	.word	0x200002a2

08000fc4 <light_main>:
 8000fc4:	b570      	push	{r4, r5, r6, lr}
 8000fc6:	4b2d      	ldr	r3, [pc, #180]	@ (800107c <light_main+0xb8>)
 8000fc8:	781b      	ldrb	r3, [r3, #0]
 8000fca:	2b00      	cmp	r3, #0
 8000fcc:	d052      	beq.n	8001074 <light_main+0xb0>
 8000fce:	4b2c      	ldr	r3, [pc, #176]	@ (8001080 <light_main+0xbc>)
 8000fd0:	4d2c      	ldr	r5, [pc, #176]	@ (8001084 <light_main+0xc0>)
 8000fd2:	781a      	ldrb	r2, [r3, #0]
 8000fd4:	b112      	cbz	r2, 8000fdc <light_main+0x18>
 8000fd6:	2200      	movs	r2, #0
 8000fd8:	702a      	strb	r2, [r5, #0]
 8000fda:	701a      	strb	r2, [r3, #0]
 8000fdc:	f000 f9b8 	bl	8001350 <sensors_movement_is_detected>
 8000fe0:	4e29      	ldr	r6, [pc, #164]	@ (8001088 <light_main+0xc4>)
 8000fe2:	b1a8      	cbz	r0, 8001010 <light_main+0x4c>
 8000fe4:	7833      	ldrb	r3, [r6, #0]
 8000fe6:	4c29      	ldr	r4, [pc, #164]	@ (800108c <light_main+0xc8>)
 8000fe8:	b973      	cbnz	r3, 8001008 <light_main+0x44>
 8000fea:	f7ff ff96 	bl	8000f1a <light_transition_to_max>
 8000fee:	2301      	movs	r3, #1
 8000ff0:	7033      	strb	r3, [r6, #0]
 8000ff2:	6822      	ldr	r2, [r4, #0]
 8000ff4:	6913      	ldr	r3, [r2, #16]
 8000ff6:	f023 0301 	bic.w	r3, r3, #1
 8000ffa:	6113      	str	r3, [r2, #16]
 8000ffc:	4620      	mov	r0, r4
 8000ffe:	f002 facd 	bl	800359c <HAL_TIM_Base_Start_IT>
 8001002:	2300      	movs	r3, #0
 8001004:	702b      	strb	r3, [r5, #0]
 8001006:	bd70      	pop	{r4, r5, r6, pc}
 8001008:	4620      	mov	r0, r4
 800100a:	f002 faf9 	bl	8003600 <HAL_TIM_Base_Stop_IT>
 800100e:	e7f0      	b.n	8000ff2 <light_main+0x2e>
 8001010:	7030      	strb	r0, [r6, #0]
 8001012:	4e1f      	ldr	r6, [pc, #124]	@ (8001090 <light_main+0xcc>)
 8001014:	4c1f      	ldr	r4, [pc, #124]	@ (8001094 <light_main+0xd0>)
 8001016:	7833      	ldrb	r3, [r6, #0]
 8001018:	b1bb      	cbz	r3, 800104a <light_main+0x86>
 800101a:	f000 f969 	bl	80012f0 <sensors_light_get_ambient_light_level>
 800101e:	f5b0 7ffa 	cmp.w	r0, #500	@ 0x1f4
 8001022:	d91a      	bls.n	800105a <light_main+0x96>
 8001024:	f5b0 7f7a 	cmp.w	r0, #1000	@ 0x3e8
 8001028:	d919      	bls.n	800105e <light_main+0x9a>
 800102a:	f240 53dc 	movw	r3, #1500	@ 0x5dc
 800102e:	4298      	cmp	r0, r3
 8001030:	d917      	bls.n	8001062 <light_main+0x9e>
 8001032:	f5b0 6ffa 	cmp.w	r0, #2000	@ 0x7d0
 8001036:	d916      	bls.n	8001066 <light_main+0xa2>
 8001038:	f640 13c4 	movw	r3, #2500	@ 0x9c4
 800103c:	4298      	cmp	r0, r3
 800103e:	bf94      	ite	ls
 8001040:	2014      	movls	r0, #20
 8001042:	200a      	movhi	r0, #10
 8001044:	2300      	movs	r3, #0
 8001046:	7020      	strb	r0, [r4, #0]
 8001048:	7033      	strb	r3, [r6, #0]
 800104a:	782b      	ldrb	r3, [r5, #0]
 800104c:	7821      	ldrb	r1, [r4, #0]
 800104e:	b963      	cbnz	r3, 800106a <light_main+0xa6>
 8001050:	4608      	mov	r0, r1
 8001052:	f7ff fefe 	bl	8000e52 <light_default_state>
 8001056:	2301      	movs	r3, #1
 8001058:	e7d4      	b.n	8001004 <light_main+0x40>
 800105a:	2064      	movs	r0, #100	@ 0x64
 800105c:	e7f2      	b.n	8001044 <light_main+0x80>
 800105e:	2050      	movs	r0, #80	@ 0x50
 8001060:	e7f0      	b.n	8001044 <light_main+0x80>
 8001062:	203c      	movs	r0, #60	@ 0x3c
 8001064:	e7ee      	b.n	8001044 <light_main+0x80>
 8001066:	2028      	movs	r0, #40	@ 0x28
 8001068:	e7ec      	b.n	8001044 <light_main+0x80>
 800106a:	e8bd 4070 	ldmia.w	sp!, {r4, r5, r6, lr}
 800106e:	2000      	movs	r0, #0
 8001070:	f7ff bee0 	b.w	8000e34 <light_set_intensity>
 8001074:	e8bd 4070 	ldmia.w	sp!, {r4, r5, r6, lr}
 8001078:	f7ff beaf 	b.w	8000dda <light_shutdown>
 800107c:	200002a3 	.word	0x200002a3
 8001080:	200002a1 	.word	0x200002a1
 8001084:	200002a0 	.word	0x200002a0
 8001088:	2000029f 	.word	0x2000029f
 800108c:	20000128 	.word	0x20000128
 8001090:	200002a2 	.word	0x200002a2
 8001094:	2000029e 	.word	0x2000029e

08001098 <light_i2c_select_page>:
 8001098:	b51f      	push	{r0, r1, r2, r3, r4, lr}
 800109a:	23fd      	movs	r3, #253	@ 0xfd
 800109c:	f88d 300c 	strb.w	r3, [sp, #12]
 80010a0:	2364      	movs	r3, #100	@ 0x64
 80010a2:	f88d 000d 	strb.w	r0, [sp, #13]
 80010a6:	9300      	str	r3, [sp, #0]
 80010a8:	aa03      	add	r2, sp, #12
 80010aa:	2302      	movs	r3, #2
 80010ac:	21e8      	movs	r1, #232	@ 0xe8
 80010ae:	4803      	ldr	r0, [pc, #12]	@ (80010bc <light_i2c_select_page+0x24>)
 80010b0:	f001 f8ae 	bl	8002210 <HAL_I2C_Master_Transmit>
 80010b4:	b005      	add	sp, #20
 80010b6:	f85d fb04 	ldr.w	pc, [sp], #4
 80010ba:	bf00      	nop
 80010bc:	20000200 	.word	0x20000200

080010c0 <light_i2c_write_single_register>:
 80010c0:	b530      	push	{r4, r5, lr}
 80010c2:	b085      	sub	sp, #20
 80010c4:	460d      	mov	r5, r1
 80010c6:	4614      	mov	r4, r2
 80010c8:	f7ff ffe6 	bl	8001098 <light_i2c_select_page>
 80010cc:	2802      	cmp	r0, #2
 80010ce:	d00b      	beq.n	80010e8 <light_i2c_write_single_register+0x28>
 80010d0:	2364      	movs	r3, #100	@ 0x64
 80010d2:	9300      	str	r3, [sp, #0]
 80010d4:	4805      	ldr	r0, [pc, #20]	@ (80010ec <light_i2c_write_single_register+0x2c>)
 80010d6:	f88d 500c 	strb.w	r5, [sp, #12]
 80010da:	2302      	movs	r3, #2
 80010dc:	aa03      	add	r2, sp, #12
 80010de:	21e8      	movs	r1, #232	@ 0xe8
 80010e0:	f88d 400d 	strb.w	r4, [sp, #13]
 80010e4:	f001 f894 	bl	8002210 <HAL_I2C_Master_Transmit>
 80010e8:	b005      	add	sp, #20
 80010ea:	bd30      	pop	{r4, r5, pc}
 80010ec:	20000200 	.word	0x20000200

080010f0 <light_i2c_send_data>:
 80010f0:	e92d 47f0 	stmdb	sp!, {r4, r5, r6, r7, r8, r9, sl, lr}
 80010f4:	b082      	sub	sp, #8
 80010f6:	af02      	add	r7, sp, #8
 80010f8:	460e      	mov	r6, r1
 80010fa:	4615      	mov	r5, r2
 80010fc:	461c      	mov	r4, r3
 80010fe:	f7ff ffcb 	bl	8001098 <light_i2c_select_page>
 8001102:	2802      	cmp	r0, #2
 8001104:	d01b      	beq.n	800113e <light_i2c_send_data+0x4e>
 8001106:	f104 0208 	add.w	r2, r4, #8
 800110a:	f402 72fc 	and.w	r2, r2, #504	@ 0x1f8
 800110e:	46e8      	mov	r8, sp
 8001110:	ebad 0d02 	sub.w	sp, sp, r2
 8001114:	4629      	mov	r1, r5
 8001116:	f88d 6008 	strb.w	r6, [sp, #8]
 800111a:	4622      	mov	r2, r4
 800111c:	f10d 0009 	add.w	r0, sp, #9
 8001120:	f002 ffd0 	bl	80040c4 <memcpy>
 8001124:	f10d 0908 	add.w	r9, sp, #8
 8001128:	2364      	movs	r3, #100	@ 0x64
 800112a:	f104 0a01 	add.w	sl, r4, #1
 800112e:	9300      	str	r3, [sp, #0]
 8001130:	4804      	ldr	r0, [pc, #16]	@ (8001144 <light_i2c_send_data+0x54>)
 8001132:	4653      	mov	r3, sl
 8001134:	464a      	mov	r2, r9
 8001136:	21e8      	movs	r1, #232	@ 0xe8
 8001138:	f001 f86a 	bl	8002210 <HAL_I2C_Master_Transmit>
 800113c:	46c5      	mov	sp, r8
 800113e:	46bd      	mov	sp, r7
 8001140:	e8bd 87f0 	ldmia.w	sp!, {r4, r5, r6, r7, r8, r9, sl, pc}
 8001144:	20000200 	.word	0x20000200

08001148 <panic_is_active>:
 8001148:	4b01      	ldr	r3, [pc, #4]	@ (8001150 <panic_is_active+0x8>)
 800114a:	7818      	ldrb	r0, [r3, #0]
 800114c:	4770      	bx	lr
 800114e:	bf00      	nop
 8001150:	200002b6 	.word	0x200002b6

08001154 <panic_activate>:
 8001154:	b508      	push	{r3, lr}
 8001156:	4b06      	ldr	r3, [pc, #24]	@ (8001170 <panic_activate+0x1c>)
 8001158:	2201      	movs	r2, #1
 800115a:	701a      	strb	r2, [r3, #0]
 800115c:	2200      	movs	r2, #0
 800115e:	2006      	movs	r0, #6
 8001160:	4611      	mov	r1, r2
 8001162:	f000 fb8d 	bl	8001880 <HAL_NVIC_SetPriority>
 8001166:	e8bd 4008 	ldmia.w	sp!, {r3, lr}
 800116a:	2006      	movs	r0, #6
 800116c:	f000 bbba 	b.w	80018e4 <HAL_NVIC_EnableIRQ>
 8001170:	200002b6 	.word	0x200002b6

08001174 <panic_deactivate>:
 8001174:	4b02      	ldr	r3, [pc, #8]	@ (8001180 <panic_deactivate+0xc>)
 8001176:	2200      	movs	r2, #0
 8001178:	2006      	movs	r0, #6
 800117a:	701a      	strb	r2, [r3, #0]
 800117c:	f000 bbc0 	b.w	8001900 <HAL_NVIC_DisableIRQ>
 8001180:	200002b6 	.word	0x200002b6

08001184 <panic_main>:
 8001184:	b508      	push	{r3, lr}
 8001186:	4b1a      	ldr	r3, [pc, #104]	@ (80011f0 <panic_main+0x6c>)
 8001188:	781b      	ldrb	r3, [r3, #0]
 800118a:	b383      	cbz	r3, 80011ee <panic_main+0x6a>
 800118c:	f000 f83e 	bl	800120c <panic_button_is_pressed>
 8001190:	b1a0      	cbz	r0, 80011bc <panic_main+0x38>
 8001192:	f000 f863 	bl	800125c <panic_buzzer_is_active>
 8001196:	b128      	cbz	r0, 80011a4 <panic_main+0x20>
 8001198:	f000 f852 	bl	8001240 <panic_buzzer_stop>
 800119c:	e8bd 4008 	ldmia.w	sp!, {r3, lr}
 80011a0:	f000 b87e 	b.w	80012a0 <panic_timer_stop>
 80011a4:	f000 f88c 	bl	80012c0 <panic_timer_is_active>
 80011a8:	2800      	cmp	r0, #0
 80011aa:	d1f7      	bne.n	800119c <panic_main+0x18>
 80011ac:	f000 f868 	bl	8001280 <panic_timer_start>
 80011b0:	f000 f832 	bl	8001218 <panic_buzzer_start>
 80011b4:	e8bd 4008 	ldmia.w	sp!, {r3, lr}
 80011b8:	f000 b822 	b.w	8001200 <panic_button_reset>
 80011bc:	f000 f880 	bl	80012c0 <panic_timer_is_active>
 80011c0:	b1a8      	cbz	r0, 80011ee <panic_main+0x6a>
 80011c2:	f000 f883 	bl	80012cc <panic_timer_is_elapsed>
 80011c6:	b190      	cbz	r0, 80011ee <panic_main+0x6a>
 80011c8:	f000 f848 	bl	800125c <panic_buzzer_is_active>
 80011cc:	b128      	cbz	r0, 80011da <panic_main+0x56>
 80011ce:	f000 f837 	bl	8001240 <panic_buzzer_stop>
 80011d2:	e8bd 4008 	ldmia.w	sp!, {r3, lr}
 80011d6:	f000 b885 	b.w	80012e4 <panic_timer_is_elapsed_reset>
 80011da:	f000 f845 	bl	8001268 <panic_buzzer_get_counter>
 80011de:	2805      	cmp	r0, #5
 80011e0:	d102      	bne.n	80011e8 <panic_main+0x64>
 80011e2:	f000 f85d 	bl	80012a0 <panic_timer_stop>
 80011e6:	e7f4      	b.n	80011d2 <panic_main+0x4e>
 80011e8:	f000 f816 	bl	8001218 <panic_buzzer_start>
 80011ec:	e7f1      	b.n	80011d2 <panic_main+0x4e>
 80011ee:	bd08      	pop	{r3, pc}
 80011f0:	200002b6 	.word	0x200002b6

080011f4 <panic_button_set>:
 80011f4:	4b01      	ldr	r3, [pc, #4]	@ (80011fc <panic_button_set+0x8>)
 80011f6:	2201      	movs	r2, #1
 80011f8:	701a      	strb	r2, [r3, #0]
 80011fa:	4770      	bx	lr
 80011fc:	200002b7 	.word	0x200002b7

08001200 <panic_button_reset>:
 8001200:	4b01      	ldr	r3, [pc, #4]	@ (8001208 <panic_button_reset+0x8>)
 8001202:	2200      	movs	r2, #0
 8001204:	701a      	strb	r2, [r3, #0]
 8001206:	4770      	bx	lr
 8001208:	200002b7 	.word	0x200002b7

0800120c <panic_button_is_pressed>:
 800120c:	4b01      	ldr	r3, [pc, #4]	@ (8001214 <panic_button_is_pressed+0x8>)
 800120e:	7818      	ldrb	r0, [r3, #0]
 8001210:	4770      	bx	lr
 8001212:	bf00      	nop
 8001214:	200002b7 	.word	0x200002b7

08001218 <panic_buzzer_start>:
 8001218:	b508      	push	{r3, lr}
 800121a:	2201      	movs	r2, #1
 800121c:	4805      	ldr	r0, [pc, #20]	@ (8001234 <panic_buzzer_start+0x1c>)
 800121e:	2180      	movs	r1, #128	@ 0x80
 8001220:	f000 fe4c 	bl	8001ebc <HAL_GPIO_WritePin>
 8001224:	4b04      	ldr	r3, [pc, #16]	@ (8001238 <panic_buzzer_start+0x20>)
 8001226:	2201      	movs	r2, #1
 8001228:	701a      	strb	r2, [r3, #0]
 800122a:	4a04      	ldr	r2, [pc, #16]	@ (800123c <panic_buzzer_start+0x24>)
 800122c:	7813      	ldrb	r3, [r2, #0]
 800122e:	3301      	adds	r3, #1
 8001230:	7013      	strb	r3, [r2, #0]
 8001232:	bd08      	pop	{r3, pc}
 8001234:	40021000 	.word	0x40021000
 8001238:	200002b9 	.word	0x200002b9
 800123c:	200002b8 	.word	0x200002b8

08001240 <panic_buzzer_stop>:
 8001240:	b508      	push	{r3, lr}
 8001242:	2200      	movs	r2, #0
 8001244:	4803      	ldr	r0, [pc, #12]	@ (8001254 <panic_buzzer_stop+0x14>)
 8001246:	2180      	movs	r1, #128	@ 0x80
 8001248:	f000 fe38 	bl	8001ebc <HAL_GPIO_WritePin>
 800124c:	4b02      	ldr	r3, [pc, #8]	@ (8001258 <panic_buzzer_stop+0x18>)
 800124e:	2200      	movs	r2, #0
 8001250:	701a      	strb	r2, [r3, #0]
 8001252:	bd08      	pop	{r3, pc}
 8001254:	40021000 	.word	0x40021000
 8001258:	200002b9 	.word	0x200002b9

0800125c <panic_buzzer_is_active>:
 800125c:	4b01      	ldr	r3, [pc, #4]	@ (8001264 <panic_buzzer_is_active+0x8>)
 800125e:	7818      	ldrb	r0, [r3, #0]
 8001260:	4770      	bx	lr
 8001262:	bf00      	nop
 8001264:	200002b9 	.word	0x200002b9

08001268 <panic_buzzer_get_counter>:
 8001268:	4b01      	ldr	r3, [pc, #4]	@ (8001270 <panic_buzzer_get_counter+0x8>)
 800126a:	7818      	ldrb	r0, [r3, #0]
 800126c:	4770      	bx	lr
 800126e:	bf00      	nop
 8001270:	200002b8 	.word	0x200002b8

08001274 <panic_buzzer_reset_counter>:
 8001274:	4b01      	ldr	r3, [pc, #4]	@ (800127c <panic_buzzer_reset_counter+0x8>)
 8001276:	2200      	movs	r2, #0
 8001278:	701a      	strb	r2, [r3, #0]
 800127a:	4770      	bx	lr
 800127c:	200002b8 	.word	0x200002b8

08001280 <panic_timer_start>:
 8001280:	b508      	push	{r3, lr}
 8001282:	4805      	ldr	r0, [pc, #20]	@ (8001298 <panic_timer_start+0x18>)
 8001284:	f002 f98a 	bl	800359c <HAL_TIM_Base_Start_IT>
 8001288:	4b04      	ldr	r3, [pc, #16]	@ (800129c <panic_timer_start+0x1c>)
 800128a:	2201      	movs	r2, #1
 800128c:	701a      	strb	r2, [r3, #0]
 800128e:	e8bd 4008 	ldmia.w	sp!, {r3, lr}
 8001292:	f7ff bfef 	b.w	8001274 <panic_buzzer_reset_counter>
 8001296:	bf00      	nop
 8001298:	200001b8 	.word	0x200001b8
 800129c:	200002bb 	.word	0x200002bb

080012a0 <panic_timer_stop>:
 80012a0:	b508      	push	{r3, lr}
 80012a2:	4805      	ldr	r0, [pc, #20]	@ (80012b8 <panic_timer_stop+0x18>)
 80012a4:	f002 f9ac 	bl	8003600 <HAL_TIM_Base_Stop_IT>
 80012a8:	4b04      	ldr	r3, [pc, #16]	@ (80012bc <panic_timer_stop+0x1c>)
 80012aa:	2200      	movs	r2, #0
 80012ac:	701a      	strb	r2, [r3, #0]
 80012ae:	e8bd 4008 	ldmia.w	sp!, {r3, lr}
 80012b2:	f7ff bfdf 	b.w	8001274 <panic_buzzer_reset_counter>
 80012b6:	bf00      	nop
 80012b8:	200001b8 	.word	0x200001b8
 80012bc:	200002bb 	.word	0x200002bb

080012c0 <panic_timer_is_active>:
 80012c0:	4b01      	ldr	r3, [pc, #4]	@ (80012c8 <panic_timer_is_active+0x8>)
 80012c2:	7818      	ldrb	r0, [r3, #0]
 80012c4:	4770      	bx	lr
 80012c6:	bf00      	nop
 80012c8:	200002bb 	.word	0x200002bb

080012cc <panic_timer_is_elapsed>:
 80012cc:	4b01      	ldr	r3, [pc, #4]	@ (80012d4 <panic_timer_is_elapsed+0x8>)
 80012ce:	7818      	ldrb	r0, [r3, #0]
 80012d0:	4770      	bx	lr
 80012d2:	bf00      	nop
 80012d4:	200002ba 	.word	0x200002ba

080012d8 <panic_timer_elapsed>:
 80012d8:	4b01      	ldr	r3, [pc, #4]	@ (80012e0 <panic_timer_elapsed+0x8>)
 80012da:	2201      	movs	r2, #1
 80012dc:	701a      	strb	r2, [r3, #0]
 80012de:	4770      	bx	lr
 80012e0:	200002ba 	.word	0x200002ba

080012e4 <panic_timer_is_elapsed_reset>:
 80012e4:	4b01      	ldr	r3, [pc, #4]	@ (80012ec <panic_timer_is_elapsed_reset+0x8>)
 80012e6:	2200      	movs	r2, #0
 80012e8:	701a      	strb	r2, [r3, #0]
 80012ea:	4770      	bx	lr
 80012ec:	200002ba 	.word	0x200002ba

080012f0 <sensors_light_get_ambient_light_level>:
 80012f0:	b510      	push	{r4, lr}
 80012f2:	4b0c      	ldr	r3, [pc, #48]	@ (8001324 <sensors_light_get_ambient_light_level+0x34>)
 80012f4:	781b      	ldrb	r3, [r3, #0]
 80012f6:	b91b      	cbnz	r3, 8001300 <sensors_light_get_ambient_light_level+0x10>
 80012f8:	f04f 3411 	mov.w	r4, #286331153	@ 0x11111111
 80012fc:	4620      	mov	r0, r4
 80012fe:	bd10      	pop	{r4, pc}
 8001300:	4809      	ldr	r0, [pc, #36]	@ (8001328 <sensors_light_get_ambient_light_level+0x38>)
 8001302:	f000 f935 	bl	8001570 <HAL_ADC_Start>
 8001306:	4808      	ldr	r0, [pc, #32]	@ (8001328 <sensors_light_get_ambient_light_level+0x38>)
 8001308:	210a      	movs	r1, #10
 800130a:	f000 f9b4 	bl	8001676 <HAL_ADC_PollForConversion>
 800130e:	2800      	cmp	r0, #0
 8001310:	d1f2      	bne.n	80012f8 <sensors_light_get_ambient_light_level+0x8>
 8001312:	4805      	ldr	r0, [pc, #20]	@ (8001328 <sensors_light_get_ambient_light_level+0x38>)
 8001314:	f000 fa02 	bl	800171c <HAL_ADC_GetValue>
 8001318:	4604      	mov	r4, r0
 800131a:	4803      	ldr	r0, [pc, #12]	@ (8001328 <sensors_light_get_ambient_light_level+0x38>)
 800131c:	f000 f990 	bl	8001640 <HAL_ADC_Stop>
 8001320:	e7ec      	b.n	80012fc <sensors_light_get_ambient_light_level+0xc>
 8001322:	bf00      	nop
 8001324:	200002bc 	.word	0x200002bc
 8001328:	20000254 	.word	0x20000254

0800132c <sensors_light_sensor_start>:
 800132c:	4b01      	ldr	r3, [pc, #4]	@ (8001334 <sensors_light_sensor_start+0x8>)
 800132e:	2201      	movs	r2, #1
 8001330:	701a      	strb	r2, [r3, #0]
 8001332:	4770      	bx	lr
 8001334:	200002bc 	.word	0x200002bc

08001338 <sensors_light_sensor_stop>:
 8001338:	4b01      	ldr	r3, [pc, #4]	@ (8001340 <sensors_light_sensor_stop+0x8>)
 800133a:	2200      	movs	r2, #0
 800133c:	701a      	strb	r2, [r3, #0]
 800133e:	4770      	bx	lr
 8001340:	200002bc 	.word	0x200002bc

08001344 <sensors_movement_detected>:
 8001344:	4b01      	ldr	r3, [pc, #4]	@ (800134c <sensors_movement_detected+0x8>)
 8001346:	2201      	movs	r2, #1
 8001348:	701a      	strb	r2, [r3, #0]
 800134a:	4770      	bx	lr
 800134c:	200002bd 	.word	0x200002bd

08001350 <sensors_movement_is_detected>:
 8001350:	4b01      	ldr	r3, [pc, #4]	@ (8001358 <sensors_movement_is_detected+0x8>)
 8001352:	7818      	ldrb	r0, [r3, #0]
 8001354:	4770      	bx	lr
 8001356:	bf00      	nop
 8001358:	200002bd 	.word	0x200002bd

0800135c <sensors_movement_detected_reset>:
 800135c:	4b01      	ldr	r3, [pc, #4]	@ (8001364 <sensors_movement_detected_reset+0x8>)
 800135e:	2200      	movs	r2, #0
 8001360:	701a      	strb	r2, [r3, #0]
 8001362:	4770      	bx	lr
 8001364:	200002bd 	.word	0x200002bd

08001368 <sensors_movement_sensor_on>:
 8001368:	b508      	push	{r3, lr}
 800136a:	2200      	movs	r2, #0
 800136c:	2017      	movs	r0, #23
 800136e:	4611      	mov	r1, r2
 8001370:	f000 fa86 	bl	8001880 <HAL_NVIC_SetPriority>
 8001374:	e8bd 4008 	ldmia.w	sp!, {r3, lr}
 8001378:	2017      	movs	r0, #23
 800137a:	f000 bab3 	b.w	80018e4 <HAL_NVIC_EnableIRQ>

0800137e <sensors_movement_sensor_off>:
 800137e:	2017      	movs	r0, #23
 8001380:	f000 babe 	b.w	8001900 <HAL_NVIC_DisableIRQ>

08001384 <HAL_InitTick>:
 8001384:	b538      	push	{r3, r4, r5, lr}
 8001386:	4b0e      	ldr	r3, [pc, #56]	@ (80013c0 <HAL_InitTick+0x3c>)
 8001388:	781a      	ldrb	r2, [r3, #0]
 800138a:	f44f 737a 	mov.w	r3, #1000	@ 0x3e8
 800138e:	fbb3 f3f2 	udiv	r3, r3, r2
 8001392:	4a0c      	ldr	r2, [pc, #48]	@ (80013c4 <HAL_InitTick+0x40>)
 8001394:	4605      	mov	r5, r0
 8001396:	6810      	ldr	r0, [r2, #0]
 8001398:	fbb0 f0f3 	udiv	r0, r0, r3
 800139c:	f000 fad4 	bl	8001948 <HAL_SYSTICK_Config>
 80013a0:	4604      	mov	r4, r0
 80013a2:	b958      	cbnz	r0, 80013bc <HAL_InitTick+0x38>
 80013a4:	2d0f      	cmp	r5, #15
 80013a6:	d809      	bhi.n	80013bc <HAL_InitTick+0x38>
 80013a8:	4602      	mov	r2, r0
 80013aa:	4629      	mov	r1, r5
 80013ac:	f04f 30ff 	mov.w	r0, #4294967295	@ 0xffffffff
 80013b0:	f000 fa66 	bl	8001880 <HAL_NVIC_SetPriority>
 80013b4:	4b04      	ldr	r3, [pc, #16]	@ (80013c8 <HAL_InitTick+0x44>)
 80013b6:	4620      	mov	r0, r4
 80013b8:	601d      	str	r5, [r3, #0]
 80013ba:	bd38      	pop	{r3, r4, r5, pc}
 80013bc:	2001      	movs	r0, #1
 80013be:	e7fc      	b.n	80013ba <HAL_InitTick+0x36>
 80013c0:	20000016 	.word	0x20000016
 80013c4:	20000000 	.word	0x20000000
 80013c8:	20000018 	.word	0x20000018

080013cc <HAL_Init>:
 80013cc:	b508      	push	{r3, lr}
 80013ce:	4b0b      	ldr	r3, [pc, #44]	@ (80013fc <HAL_Init+0x30>)
 80013d0:	681a      	ldr	r2, [r3, #0]
 80013d2:	f442 7200 	orr.w	r2, r2, #512	@ 0x200
 80013d6:	601a      	str	r2, [r3, #0]
 80013d8:	681a      	ldr	r2, [r3, #0]
 80013da:	f442 6280 	orr.w	r2, r2, #1024	@ 0x400
 80013de:	601a      	str	r2, [r3, #0]
 80013e0:	681a      	ldr	r2, [r3, #0]
 80013e2:	f442 7280 	orr.w	r2, r2, #256	@ 0x100
 80013e6:	601a      	str	r2, [r3, #0]
 80013e8:	2003      	movs	r0, #3
 80013ea:	f000 fa37 	bl	800185c <HAL_NVIC_SetPriorityGrouping>
 80013ee:	2000      	movs	r0, #0
 80013f0:	f7ff ffc8 	bl	8001384 <HAL_InitTick>
 80013f4:	f7ff faae 	bl	8000954 <HAL_MspInit>
 80013f8:	2000      	movs	r0, #0
 80013fa:	bd08      	pop	{r3, pc}
 80013fc:	40023c00 	.word	0x40023c00

08001400 <HAL_IncTick>:
 8001400:	4a03      	ldr	r2, [pc, #12]	@ (8001410 <HAL_IncTick+0x10>)
 8001402:	4b04      	ldr	r3, [pc, #16]	@ (8001414 <HAL_IncTick+0x14>)
 8001404:	6811      	ldr	r1, [r2, #0]
 8001406:	781b      	ldrb	r3, [r3, #0]
 8001408:	440b      	add	r3, r1
 800140a:	6013      	str	r3, [r2, #0]
 800140c:	4770      	bx	lr
 800140e:	bf00      	nop
 8001410:	200002c0 	.word	0x200002c0
 8001414:	20000016 	.word	0x20000016

08001418 <HAL_GetTick>:
 8001418:	4b01      	ldr	r3, [pc, #4]	@ (8001420 <HAL_GetTick+0x8>)
 800141a:	6818      	ldr	r0, [r3, #0]
 800141c:	4770      	bx	lr
 800141e:	bf00      	nop
 8001420:	200002c0 	.word	0x200002c0

08001424 <HAL_ADC_Init>:
 8001424:	b538      	push	{r3, r4, r5, lr}
 8001426:	4604      	mov	r4, r0
 8001428:	2800      	cmp	r0, #0
 800142a:	f000 809b 	beq.w	8001564 <HAL_ADC_Init+0x140>
 800142e:	6c05      	ldr	r5, [r0, #64]	@ 0x40
 8001430:	b925      	cbnz	r5, 800143c <HAL_ADC_Init+0x18>
 8001432:	f7ff faad 	bl	8000990 <HAL_ADC_MspInit>
 8001436:	6465      	str	r5, [r4, #68]	@ 0x44
 8001438:	f884 503c 	strb.w	r5, [r4, #60]	@ 0x3c
 800143c:	6c23      	ldr	r3, [r4, #64]	@ 0x40
 800143e:	06db      	lsls	r3, r3, #27
 8001440:	f100 808e 	bmi.w	8001560 <HAL_ADC_Init+0x13c>
 8001444:	6c23      	ldr	r3, [r4, #64]	@ 0x40
 8001446:	f423 5388 	bic.w	r3, r3, #4352	@ 0x1100
 800144a:	f023 0302 	bic.w	r3, r3, #2
 800144e:	f043 0302 	orr.w	r3, r3, #2
 8001452:	6423      	str	r3, [r4, #64]	@ 0x40
 8001454:	4b44      	ldr	r3, [pc, #272]	@ (8001568 <HAL_ADC_Init+0x144>)
 8001456:	685a      	ldr	r2, [r3, #4]
 8001458:	f422 3240 	bic.w	r2, r2, #196608	@ 0x30000
 800145c:	605a      	str	r2, [r3, #4]
 800145e:	685a      	ldr	r2, [r3, #4]
 8001460:	6861      	ldr	r1, [r4, #4]
 8001462:	430a      	orrs	r2, r1
 8001464:	605a      	str	r2, [r3, #4]
 8001466:	6823      	ldr	r3, [r4, #0]
 8001468:	6921      	ldr	r1, [r4, #16]
 800146a:	685a      	ldr	r2, [r3, #4]
 800146c:	f422 7280 	bic.w	r2, r2, #256	@ 0x100
 8001470:	605a      	str	r2, [r3, #4]
 8001472:	685a      	ldr	r2, [r3, #4]
 8001474:	ea42 2201 	orr.w	r2, r2, r1, lsl #8
 8001478:	605a      	str	r2, [r3, #4]
 800147a:	685a      	ldr	r2, [r3, #4]
 800147c:	68a1      	ldr	r1, [r4, #8]
 800147e:	f022 7240 	bic.w	r2, r2, #50331648	@ 0x3000000
 8001482:	605a      	str	r2, [r3, #4]
 8001484:	685a      	ldr	r2, [r3, #4]
 8001486:	430a      	orrs	r2, r1
 8001488:	605a      	str	r2, [r3, #4]
 800148a:	689a      	ldr	r2, [r3, #8]
 800148c:	68e1      	ldr	r1, [r4, #12]
 800148e:	f422 6200 	bic.w	r2, r2, #2048	@ 0x800
 8001492:	609a      	str	r2, [r3, #8]
 8001494:	689a      	ldr	r2, [r3, #8]
 8001496:	430a      	orrs	r2, r1
 8001498:	609a      	str	r2, [r3, #8]
 800149a:	4934      	ldr	r1, [pc, #208]	@ (800156c <HAL_ADC_Init+0x148>)
 800149c:	6aa2      	ldr	r2, [r4, #40]	@ 0x28
 800149e:	428a      	cmp	r2, r1
 80014a0:	d052      	beq.n	8001548 <HAL_ADC_Init+0x124>
 80014a2:	6899      	ldr	r1, [r3, #8]
 80014a4:	f021 6170 	bic.w	r1, r1, #251658240	@ 0xf000000
 80014a8:	6099      	str	r1, [r3, #8]
 80014aa:	6899      	ldr	r1, [r3, #8]
 80014ac:	430a      	orrs	r2, r1
 80014ae:	609a      	str	r2, [r3, #8]
 80014b0:	689a      	ldr	r2, [r3, #8]
 80014b2:	6ae1      	ldr	r1, [r4, #44]	@ 0x2c
 80014b4:	f022 5240 	bic.w	r2, r2, #805306368	@ 0x30000000
 80014b8:	609a      	str	r2, [r3, #8]
 80014ba:	689a      	ldr	r2, [r3, #8]
 80014bc:	430a      	orrs	r2, r1
 80014be:	609a      	str	r2, [r3, #8]
 80014c0:	689a      	ldr	r2, [r3, #8]
 80014c2:	f022 0202 	bic.w	r2, r2, #2
 80014c6:	609a      	str	r2, [r3, #8]
 80014c8:	689a      	ldr	r2, [r3, #8]
 80014ca:	7e21      	ldrb	r1, [r4, #24]
 80014cc:	ea42 0241 	orr.w	r2, r2, r1, lsl #1
 80014d0:	609a      	str	r2, [r3, #8]
 80014d2:	f894 2020 	ldrb.w	r2, [r4, #32]
 80014d6:	2a00      	cmp	r2, #0
 80014d8:	d03e      	beq.n	8001558 <HAL_ADC_Init+0x134>
 80014da:	685a      	ldr	r2, [r3, #4]
 80014dc:	6a61      	ldr	r1, [r4, #36]	@ 0x24
 80014de:	f442 6200 	orr.w	r2, r2, #2048	@ 0x800
 80014e2:	605a      	str	r2, [r3, #4]
 80014e4:	685a      	ldr	r2, [r3, #4]
 80014e6:	f422 4260 	bic.w	r2, r2, #57344	@ 0xe000
 80014ea:	605a      	str	r2, [r3, #4]
 80014ec:	685a      	ldr	r2, [r3, #4]
 80014ee:	3901      	subs	r1, #1
 80014f0:	ea42 3241 	orr.w	r2, r2, r1, lsl #13
 80014f4:	605a      	str	r2, [r3, #4]
 80014f6:	6ada      	ldr	r2, [r3, #44]	@ 0x2c
 80014f8:	69e1      	ldr	r1, [r4, #28]
 80014fa:	f422 0270 	bic.w	r2, r2, #15728640	@ 0xf00000
 80014fe:	62da      	str	r2, [r3, #44]	@ 0x2c
 8001500:	6ada      	ldr	r2, [r3, #44]	@ 0x2c
 8001502:	3901      	subs	r1, #1
 8001504:	ea42 5201 	orr.w	r2, r2, r1, lsl #20
 8001508:	62da      	str	r2, [r3, #44]	@ 0x2c
 800150a:	689a      	ldr	r2, [r3, #8]
 800150c:	f422 7200 	bic.w	r2, r2, #512	@ 0x200
 8001510:	609a      	str	r2, [r3, #8]
 8001512:	689a      	ldr	r2, [r3, #8]
 8001514:	f894 1030 	ldrb.w	r1, [r4, #48]	@ 0x30
 8001518:	ea42 2241 	orr.w	r2, r2, r1, lsl #9
 800151c:	609a      	str	r2, [r3, #8]
 800151e:	689a      	ldr	r2, [r3, #8]
 8001520:	6961      	ldr	r1, [r4, #20]
 8001522:	f422 6280 	bic.w	r2, r2, #1024	@ 0x400
 8001526:	609a      	str	r2, [r3, #8]
 8001528:	689a      	ldr	r2, [r3, #8]
 800152a:	2000      	movs	r0, #0
 800152c:	ea42 2281 	orr.w	r2, r2, r1, lsl #10
 8001530:	609a      	str	r2, [r3, #8]
 8001532:	6460      	str	r0, [r4, #68]	@ 0x44
 8001534:	6c23      	ldr	r3, [r4, #64]	@ 0x40
 8001536:	f023 0303 	bic.w	r3, r3, #3
 800153a:	f043 0301 	orr.w	r3, r3, #1
 800153e:	6423      	str	r3, [r4, #64]	@ 0x40
 8001540:	2300      	movs	r3, #0
 8001542:	f884 303c 	strb.w	r3, [r4, #60]	@ 0x3c
 8001546:	bd38      	pop	{r3, r4, r5, pc}
 8001548:	689a      	ldr	r2, [r3, #8]
 800154a:	f022 6270 	bic.w	r2, r2, #251658240	@ 0xf000000
 800154e:	609a      	str	r2, [r3, #8]
 8001550:	689a      	ldr	r2, [r3, #8]
 8001552:	f022 5240 	bic.w	r2, r2, #805306368	@ 0x30000000
 8001556:	e7b2      	b.n	80014be <HAL_ADC_Init+0x9a>
 8001558:	685a      	ldr	r2, [r3, #4]
 800155a:	f422 6200 	bic.w	r2, r2, #2048	@ 0x800
 800155e:	e7c9      	b.n	80014f4 <HAL_ADC_Init+0xd0>
 8001560:	2001      	movs	r0, #1
 8001562:	e7ed      	b.n	8001540 <HAL_ADC_Init+0x11c>
 8001564:	2001      	movs	r0, #1
 8001566:	e7ee      	b.n	8001546 <HAL_ADC_Init+0x122>
 8001568:	40012300 	.word	0x40012300
 800156c:	0f000001 	.word	0x0f000001

08001570 <HAL_ADC_Start>:
 8001570:	b082      	sub	sp, #8
 8001572:	2300      	movs	r3, #0
 8001574:	9301      	str	r3, [sp, #4]
 8001576:	f890 303c 	ldrb.w	r3, [r0, #60]	@ 0x3c
 800157a:	2b01      	cmp	r3, #1
 800157c:	d056      	beq.n	800162c <HAL_ADC_Start+0xbc>
 800157e:	2301      	movs	r3, #1
 8001580:	f880 303c 	strb.w	r3, [r0, #60]	@ 0x3c
 8001584:	6803      	ldr	r3, [r0, #0]
 8001586:	689a      	ldr	r2, [r3, #8]
 8001588:	07d1      	lsls	r1, r2, #31
 800158a:	d50b      	bpl.n	80015a4 <HAL_ADC_Start+0x34>
 800158c:	689a      	ldr	r2, [r3, #8]
 800158e:	07d2      	lsls	r2, r2, #31
 8001590:	d41a      	bmi.n	80015c8 <HAL_ADC_Start+0x58>
 8001592:	6c03      	ldr	r3, [r0, #64]	@ 0x40
 8001594:	f043 0310 	orr.w	r3, r3, #16
 8001598:	6403      	str	r3, [r0, #64]	@ 0x40
 800159a:	6c43      	ldr	r3, [r0, #68]	@ 0x44
 800159c:	f043 0301 	orr.w	r3, r3, #1
 80015a0:	6443      	str	r3, [r0, #68]	@ 0x44
 80015a2:	e040      	b.n	8001626 <HAL_ADC_Start+0xb6>
 80015a4:	689a      	ldr	r2, [r3, #8]
 80015a6:	4922      	ldr	r1, [pc, #136]	@ (8001630 <HAL_ADC_Start+0xc0>)
 80015a8:	f042 0201 	orr.w	r2, r2, #1
 80015ac:	609a      	str	r2, [r3, #8]
 80015ae:	4a21      	ldr	r2, [pc, #132]	@ (8001634 <HAL_ADC_Start+0xc4>)
 80015b0:	6812      	ldr	r2, [r2, #0]
 80015b2:	fbb2 f2f1 	udiv	r2, r2, r1
 80015b6:	eb02 0242 	add.w	r2, r2, r2, lsl #1
 80015ba:	9201      	str	r2, [sp, #4]
 80015bc:	9a01      	ldr	r2, [sp, #4]
 80015be:	2a00      	cmp	r2, #0
 80015c0:	d0e4      	beq.n	800158c <HAL_ADC_Start+0x1c>
 80015c2:	9a01      	ldr	r2, [sp, #4]
 80015c4:	3a01      	subs	r2, #1
 80015c6:	e7f8      	b.n	80015ba <HAL_ADC_Start+0x4a>
 80015c8:	6c02      	ldr	r2, [r0, #64]	@ 0x40
 80015ca:	f422 62e0 	bic.w	r2, r2, #1792	@ 0x700
 80015ce:	f022 0201 	bic.w	r2, r2, #1
 80015d2:	f442 7280 	orr.w	r2, r2, #256	@ 0x100
 80015d6:	6402      	str	r2, [r0, #64]	@ 0x40
 80015d8:	685a      	ldr	r2, [r3, #4]
 80015da:	0551      	lsls	r1, r2, #21
 80015dc:	bf41      	itttt	mi
 80015de:	6c02      	ldrmi	r2, [r0, #64]	@ 0x40
 80015e0:	f422 5240 	bicmi.w	r2, r2, #12288	@ 0x3000
 80015e4:	f442 5280 	orrmi.w	r2, r2, #4096	@ 0x1000
 80015e8:	6402      	strmi	r2, [r0, #64]	@ 0x40
 80015ea:	6c02      	ldr	r2, [r0, #64]	@ 0x40
 80015ec:	f412 5280 	ands.w	r2, r2, #4096	@ 0x1000
 80015f0:	bf1c      	itt	ne
 80015f2:	6c42      	ldrne	r2, [r0, #68]	@ 0x44
 80015f4:	f022 0206 	bicne.w	r2, r2, #6
 80015f8:	6442      	str	r2, [r0, #68]	@ 0x44
 80015fa:	2200      	movs	r2, #0
 80015fc:	f880 203c 	strb.w	r2, [r0, #60]	@ 0x3c
 8001600:	f06f 0222 	mvn.w	r2, #34	@ 0x22
 8001604:	601a      	str	r2, [r3, #0]
 8001606:	4a0c      	ldr	r2, [pc, #48]	@ (8001638 <HAL_ADC_Start+0xc8>)
 8001608:	6852      	ldr	r2, [r2, #4]
 800160a:	06d2      	lsls	r2, r2, #27
 800160c:	d108      	bne.n	8001620 <HAL_ADC_Start+0xb0>
 800160e:	689a      	ldr	r2, [r3, #8]
 8001610:	f012 5f40 	tst.w	r2, #805306368	@ 0x30000000
 8001614:	bf02      	ittt	eq
 8001616:	689a      	ldreq	r2, [r3, #8]
 8001618:	f042 4280 	orreq.w	r2, r2, #1073741824	@ 0x40000000
 800161c:	609a      	streq	r2, [r3, #8]
 800161e:	e002      	b.n	8001626 <HAL_ADC_Start+0xb6>
 8001620:	4a06      	ldr	r2, [pc, #24]	@ (800163c <HAL_ADC_Start+0xcc>)
 8001622:	4293      	cmp	r3, r2
 8001624:	d0f3      	beq.n	800160e <HAL_ADC_Start+0x9e>
 8001626:	2000      	movs	r0, #0
 8001628:	b002      	add	sp, #8
 800162a:	4770      	bx	lr
 800162c:	2002      	movs	r0, #2
 800162e:	e7fb      	b.n	8001628 <HAL_ADC_Start+0xb8>
 8001630:	000f4240 	.word	0x000f4240
 8001634:	20000000 	.word	0x20000000
 8001638:	40012300 	.word	0x40012300
 800163c:	40012000 	.word	0x40012000

08001640 <HAL_ADC_Stop>:
 8001640:	f890 303c 	ldrb.w	r3, [r0, #60]	@ 0x3c
 8001644:	2b01      	cmp	r3, #1
 8001646:	d014      	beq.n	8001672 <HAL_ADC_Stop+0x32>
 8001648:	6803      	ldr	r3, [r0, #0]
 800164a:	689a      	ldr	r2, [r3, #8]
 800164c:	f022 0201 	bic.w	r2, r2, #1
 8001650:	609a      	str	r2, [r3, #8]
 8001652:	689b      	ldr	r3, [r3, #8]
 8001654:	07db      	lsls	r3, r3, #31
 8001656:	d407      	bmi.n	8001668 <HAL_ADC_Stop+0x28>
 8001658:	6c03      	ldr	r3, [r0, #64]	@ 0x40
 800165a:	f423 5388 	bic.w	r3, r3, #4352	@ 0x1100
 800165e:	f023 0301 	bic.w	r3, r3, #1
 8001662:	f043 0301 	orr.w	r3, r3, #1
 8001666:	6403      	str	r3, [r0, #64]	@ 0x40
 8001668:	2300      	movs	r3, #0
 800166a:	f880 303c 	strb.w	r3, [r0, #60]	@ 0x3c
 800166e:	4618      	mov	r0, r3
 8001670:	4770      	bx	lr
 8001672:	2002      	movs	r0, #2
 8001674:	4770      	bx	lr

08001676 <HAL_ADC_PollForConversion>:
 8001676:	6803      	ldr	r3, [r0, #0]
 8001678:	689a      	ldr	r2, [r3, #8]
 800167a:	0552      	lsls	r2, r2, #21
 800167c:	b570      	push	{r4, r5, r6, lr}
 800167e:	4604      	mov	r4, r0
 8001680:	460d      	mov	r5, r1
 8001682:	d50b      	bpl.n	800169c <HAL_ADC_PollForConversion+0x26>
 8001684:	689b      	ldr	r3, [r3, #8]
 8001686:	05de      	lsls	r6, r3, #23
 8001688:	d508      	bpl.n	800169c <HAL_ADC_PollForConversion+0x26>
 800168a:	6c03      	ldr	r3, [r0, #64]	@ 0x40
 800168c:	f043 0320 	orr.w	r3, r3, #32
 8001690:	6403      	str	r3, [r0, #64]	@ 0x40
 8001692:	2300      	movs	r3, #0
 8001694:	f880 303c 	strb.w	r3, [r0, #60]	@ 0x3c
 8001698:	2001      	movs	r0, #1
 800169a:	bd70      	pop	{r4, r5, r6, pc}
 800169c:	f7ff febc 	bl	8001418 <HAL_GetTick>
 80016a0:	4606      	mov	r6, r0
 80016a2:	6823      	ldr	r3, [r4, #0]
 80016a4:	681a      	ldr	r2, [r3, #0]
 80016a6:	0791      	lsls	r1, r2, #30
 80016a8:	d50c      	bpl.n	80016c4 <HAL_ADC_PollForConversion+0x4e>
 80016aa:	f06f 0212 	mvn.w	r2, #18
 80016ae:	601a      	str	r2, [r3, #0]
 80016b0:	6c22      	ldr	r2, [r4, #64]	@ 0x40
 80016b2:	f442 7200 	orr.w	r2, r2, #512	@ 0x200
 80016b6:	6422      	str	r2, [r4, #64]	@ 0x40
 80016b8:	689a      	ldr	r2, [r3, #8]
 80016ba:	f012 5f40 	tst.w	r2, #805306368	@ 0x30000000
 80016be:	d017      	beq.n	80016f0 <HAL_ADC_PollForConversion+0x7a>
 80016c0:	2000      	movs	r0, #0
 80016c2:	e7ea      	b.n	800169a <HAL_ADC_PollForConversion+0x24>
 80016c4:	1c68      	adds	r0, r5, #1
 80016c6:	d0ed      	beq.n	80016a4 <HAL_ADC_PollForConversion+0x2e>
 80016c8:	b965      	cbnz	r5, 80016e4 <HAL_ADC_PollForConversion+0x6e>
 80016ca:	6823      	ldr	r3, [r4, #0]
 80016cc:	681b      	ldr	r3, [r3, #0]
 80016ce:	f013 0302 	ands.w	r3, r3, #2
 80016d2:	d1e6      	bne.n	80016a2 <HAL_ADC_PollForConversion+0x2c>
 80016d4:	6c22      	ldr	r2, [r4, #64]	@ 0x40
 80016d6:	f884 303c 	strb.w	r3, [r4, #60]	@ 0x3c
 80016da:	f042 0204 	orr.w	r2, r2, #4
 80016de:	6422      	str	r2, [r4, #64]	@ 0x40
 80016e0:	2003      	movs	r0, #3
 80016e2:	e7da      	b.n	800169a <HAL_ADC_PollForConversion+0x24>
 80016e4:	f7ff fe98 	bl	8001418 <HAL_GetTick>
 80016e8:	1b80      	subs	r0, r0, r6
 80016ea:	42a8      	cmp	r0, r5
 80016ec:	d8ed      	bhi.n	80016ca <HAL_ADC_PollForConversion+0x54>
 80016ee:	e7d8      	b.n	80016a2 <HAL_ADC_PollForConversion+0x2c>
 80016f0:	7e22      	ldrb	r2, [r4, #24]
 80016f2:	2a00      	cmp	r2, #0
 80016f4:	d1e4      	bne.n	80016c0 <HAL_ADC_PollForConversion+0x4a>
 80016f6:	6ada      	ldr	r2, [r3, #44]	@ 0x2c
 80016f8:	f412 0f70 	tst.w	r2, #15728640	@ 0xf00000
 80016fc:	d002      	beq.n	8001704 <HAL_ADC_PollForConversion+0x8e>
 80016fe:	689b      	ldr	r3, [r3, #8]
 8001700:	055a      	lsls	r2, r3, #21
 8001702:	d4dd      	bmi.n	80016c0 <HAL_ADC_PollForConversion+0x4a>
 8001704:	6c23      	ldr	r3, [r4, #64]	@ 0x40
 8001706:	f423 7380 	bic.w	r3, r3, #256	@ 0x100
 800170a:	6423      	str	r3, [r4, #64]	@ 0x40
 800170c:	6c23      	ldr	r3, [r4, #64]	@ 0x40
 800170e:	04db      	lsls	r3, r3, #19
 8001710:	d4d6      	bmi.n	80016c0 <HAL_ADC_PollForConversion+0x4a>
 8001712:	6c23      	ldr	r3, [r4, #64]	@ 0x40
 8001714:	f043 0301 	orr.w	r3, r3, #1
 8001718:	6423      	str	r3, [r4, #64]	@ 0x40
 800171a:	e7d1      	b.n	80016c0 <HAL_ADC_PollForConversion+0x4a>

0800171c <HAL_ADC_GetValue>:
 800171c:	6803      	ldr	r3, [r0, #0]
 800171e:	6cd8      	ldr	r0, [r3, #76]	@ 0x4c
 8001720:	4770      	bx	lr
	...

08001724 <HAL_ADC_ConfigChannel>:
 8001724:	b5f7      	push	{r0, r1, r2, r4, r5, r6, r7, lr}
 8001726:	2300      	movs	r3, #0
 8001728:	9301      	str	r3, [sp, #4]
 800172a:	f890 303c 	ldrb.w	r3, [r0, #60]	@ 0x3c
 800172e:	2b01      	cmp	r3, #1
 8001730:	4605      	mov	r5, r0
 8001732:	f000 8086 	beq.w	8001842 <HAL_ADC_ConfigChannel+0x11e>
 8001736:	2301      	movs	r3, #1
 8001738:	f880 303c 	strb.w	r3, [r0, #60]	@ 0x3c
 800173c:	6808      	ldr	r0, [r1, #0]
 800173e:	682b      	ldr	r3, [r5, #0]
 8001740:	688e      	ldr	r6, [r1, #8]
 8001742:	2809      	cmp	r0, #9
 8001744:	b284      	uxth	r4, r0
 8001746:	d933      	bls.n	80017b0 <HAL_ADC_ConfigChannel+0x8c>
 8001748:	eb04 0244 	add.w	r2, r4, r4, lsl #1
 800174c:	68df      	ldr	r7, [r3, #12]
 800174e:	3a1e      	subs	r2, #30
 8001750:	f04f 0c07 	mov.w	ip, #7
 8001754:	fa0c fc02 	lsl.w	ip, ip, r2
 8001758:	ea27 070c 	bic.w	r7, r7, ip
 800175c:	60df      	str	r7, [r3, #12]
 800175e:	68df      	ldr	r7, [r3, #12]
 8001760:	fa06 f202 	lsl.w	r2, r6, r2
 8001764:	433a      	orrs	r2, r7
 8001766:	60da      	str	r2, [r3, #12]
 8001768:	6849      	ldr	r1, [r1, #4]
 800176a:	2906      	cmp	r1, #6
 800176c:	eb01 0281 	add.w	r2, r1, r1, lsl #2
 8001770:	d82d      	bhi.n	80017ce <HAL_ADC_ConfigChannel+0xaa>
 8001772:	6b59      	ldr	r1, [r3, #52]	@ 0x34
 8001774:	3a05      	subs	r2, #5
 8001776:	261f      	movs	r6, #31
 8001778:	4096      	lsls	r6, r2
 800177a:	ea21 0106 	bic.w	r1, r1, r6
 800177e:	6359      	str	r1, [r3, #52]	@ 0x34
 8001780:	6b59      	ldr	r1, [r3, #52]	@ 0x34
 8001782:	fa04 f202 	lsl.w	r2, r4, r2
 8001786:	430a      	orrs	r2, r1
 8001788:	635a      	str	r2, [r3, #52]	@ 0x34
 800178a:	4a2f      	ldr	r2, [pc, #188]	@ (8001848 <HAL_ADC_ConfigChannel+0x124>)
 800178c:	4293      	cmp	r3, r2
 800178e:	d10a      	bne.n	80017a6 <HAL_ADC_ConfigChannel+0x82>
 8001790:	2812      	cmp	r0, #18
 8001792:	d137      	bne.n	8001804 <HAL_ADC_ConfigChannel+0xe0>
 8001794:	4b2d      	ldr	r3, [pc, #180]	@ (800184c <HAL_ADC_ConfigChannel+0x128>)
 8001796:	685a      	ldr	r2, [r3, #4]
 8001798:	f422 0200 	bic.w	r2, r2, #8388608	@ 0x800000
 800179c:	605a      	str	r2, [r3, #4]
 800179e:	685a      	ldr	r2, [r3, #4]
 80017a0:	f442 0280 	orr.w	r2, r2, #4194304	@ 0x400000
 80017a4:	605a      	str	r2, [r3, #4]
 80017a6:	2000      	movs	r0, #0
 80017a8:	f885 003c 	strb.w	r0, [r5, #60]	@ 0x3c
 80017ac:	b003      	add	sp, #12
 80017ae:	bdf0      	pop	{r4, r5, r6, r7, pc}
 80017b0:	691a      	ldr	r2, [r3, #16]
 80017b2:	eb00 0c40 	add.w	ip, r0, r0, lsl #1
 80017b6:	2707      	movs	r7, #7
 80017b8:	fa07 f70c 	lsl.w	r7, r7, ip
 80017bc:	ea22 0207 	bic.w	r2, r2, r7
 80017c0:	611a      	str	r2, [r3, #16]
 80017c2:	691a      	ldr	r2, [r3, #16]
 80017c4:	fa06 f60c 	lsl.w	r6, r6, ip
 80017c8:	4316      	orrs	r6, r2
 80017ca:	611e      	str	r6, [r3, #16]
 80017cc:	e7cc      	b.n	8001768 <HAL_ADC_ConfigChannel+0x44>
 80017ce:	290c      	cmp	r1, #12
 80017d0:	f04f 011f 	mov.w	r1, #31
 80017d4:	d80b      	bhi.n	80017ee <HAL_ADC_ConfigChannel+0xca>
 80017d6:	6b1e      	ldr	r6, [r3, #48]	@ 0x30
 80017d8:	3a23      	subs	r2, #35	@ 0x23
 80017da:	4091      	lsls	r1, r2
 80017dc:	ea26 0101 	bic.w	r1, r6, r1
 80017e0:	6319      	str	r1, [r3, #48]	@ 0x30
 80017e2:	6b19      	ldr	r1, [r3, #48]	@ 0x30
 80017e4:	fa04 f202 	lsl.w	r2, r4, r2
 80017e8:	430a      	orrs	r2, r1
 80017ea:	631a      	str	r2, [r3, #48]	@ 0x30
 80017ec:	e7cd      	b.n	800178a <HAL_ADC_ConfigChannel+0x66>
 80017ee:	6ade      	ldr	r6, [r3, #44]	@ 0x2c
 80017f0:	3a41      	subs	r2, #65	@ 0x41
 80017f2:	4091      	lsls	r1, r2
 80017f4:	ea26 0101 	bic.w	r1, r6, r1
 80017f8:	62d9      	str	r1, [r3, #44]	@ 0x2c
 80017fa:	6ad9      	ldr	r1, [r3, #44]	@ 0x2c
 80017fc:	4094      	lsls	r4, r2
 80017fe:	430c      	orrs	r4, r1
 8001800:	62dc      	str	r4, [r3, #44]	@ 0x2c
 8001802:	e7c2      	b.n	800178a <HAL_ADC_ConfigChannel+0x66>
 8001804:	4b12      	ldr	r3, [pc, #72]	@ (8001850 <HAL_ADC_ConfigChannel+0x12c>)
 8001806:	4298      	cmp	r0, r3
 8001808:	d001      	beq.n	800180e <HAL_ADC_ConfigChannel+0xea>
 800180a:	2811      	cmp	r0, #17
 800180c:	d1cb      	bne.n	80017a6 <HAL_ADC_ConfigChannel+0x82>
 800180e:	4b0f      	ldr	r3, [pc, #60]	@ (800184c <HAL_ADC_ConfigChannel+0x128>)
 8001810:	685a      	ldr	r2, [r3, #4]
 8001812:	f422 0280 	bic.w	r2, r2, #4194304	@ 0x400000
 8001816:	605a      	str	r2, [r3, #4]
 8001818:	685a      	ldr	r2, [r3, #4]
 800181a:	f442 0200 	orr.w	r2, r2, #8388608	@ 0x800000
 800181e:	605a      	str	r2, [r3, #4]
 8001820:	4b0b      	ldr	r3, [pc, #44]	@ (8001850 <HAL_ADC_ConfigChannel+0x12c>)
 8001822:	4298      	cmp	r0, r3
 8001824:	d1bf      	bne.n	80017a6 <HAL_ADC_ConfigChannel+0x82>
 8001826:	4b0b      	ldr	r3, [pc, #44]	@ (8001854 <HAL_ADC_ConfigChannel+0x130>)
 8001828:	4a0b      	ldr	r2, [pc, #44]	@ (8001858 <HAL_ADC_ConfigChannel+0x134>)
 800182a:	681b      	ldr	r3, [r3, #0]
 800182c:	fbb3 f3f2 	udiv	r3, r3, r2
 8001830:	220a      	movs	r2, #10
 8001832:	4353      	muls	r3, r2
 8001834:	9301      	str	r3, [sp, #4]
 8001836:	9b01      	ldr	r3, [sp, #4]
 8001838:	2b00      	cmp	r3, #0
 800183a:	d0b4      	beq.n	80017a6 <HAL_ADC_ConfigChannel+0x82>
 800183c:	9b01      	ldr	r3, [sp, #4]
 800183e:	3b01      	subs	r3, #1
 8001840:	e7f8      	b.n	8001834 <HAL_ADC_ConfigChannel+0x110>
 8001842:	2002      	movs	r0, #2
 8001844:	e7b2      	b.n	80017ac <HAL_ADC_ConfigChannel+0x88>
 8001846:	bf00      	nop
 8001848:	40012000 	.word	0x40012000
 800184c:	40012300 	.word	0x40012300
 8001850:	10000012 	.word	0x10000012
 8001854:	20000000 	.word	0x20000000
 8001858:	000f4240 	.word	0x000f4240

0800185c <HAL_NVIC_SetPriorityGrouping>:
 800185c:	4907      	ldr	r1, [pc, #28]	@ (800187c <HAL_NVIC_SetPriorityGrouping+0x20>)
 800185e:	68ca      	ldr	r2, [r1, #12]
 8001860:	f422 62e0 	bic.w	r2, r2, #1792	@ 0x700
 8001864:	0203      	lsls	r3, r0, #8
 8001866:	0412      	lsls	r2, r2, #16
 8001868:	f403 63e0 	and.w	r3, r3, #1792	@ 0x700
 800186c:	0c12      	lsrs	r2, r2, #16
 800186e:	4313      	orrs	r3, r2
 8001870:	f043 63bf 	orr.w	r3, r3, #100139008	@ 0x5f80000
 8001874:	f443 3300 	orr.w	r3, r3, #131072	@ 0x20000
 8001878:	60cb      	str	r3, [r1, #12]
 800187a:	4770      	bx	lr
 800187c:	e000ed00 	.word	0xe000ed00

08001880 <HAL_NVIC_SetPriority>:
 8001880:	4b16      	ldr	r3, [pc, #88]	@ (80018dc <HAL_NVIC_SetPriority+0x5c>)
 8001882:	b530      	push	{r4, r5, lr}
 8001884:	68dc      	ldr	r4, [r3, #12]
 8001886:	f3c4 2402 	ubfx	r4, r4, #8, #3
 800188a:	f1c4 0307 	rsb	r3, r4, #7
 800188e:	1d25      	adds	r5, r4, #4
 8001890:	2b04      	cmp	r3, #4
 8001892:	bf28      	it	cs
 8001894:	2304      	movcs	r3, #4
 8001896:	2d06      	cmp	r5, #6
 8001898:	f04f 35ff 	mov.w	r5, #4294967295	@ 0xffffffff
 800189c:	bf8c      	ite	hi
 800189e:	3c03      	subhi	r4, #3
 80018a0:	2400      	movls	r4, #0
 80018a2:	fa05 f303 	lsl.w	r3, r5, r3
 80018a6:	ea21 0303 	bic.w	r3, r1, r3
 80018aa:	40a5      	lsls	r5, r4
 80018ac:	ea22 0205 	bic.w	r2, r2, r5
 80018b0:	40a3      	lsls	r3, r4
 80018b2:	2800      	cmp	r0, #0
 80018b4:	ea43 0302 	orr.w	r3, r3, r2
 80018b8:	bfac      	ite	ge
 80018ba:	f100 4060 	addge.w	r0, r0, #3758096384	@ 0xe0000000
 80018be:	4a08      	ldrlt	r2, [pc, #32]	@ (80018e0 <HAL_NVIC_SetPriority+0x60>)
 80018c0:	ea4f 1303 	mov.w	r3, r3, lsl #4
 80018c4:	bfb8      	it	lt
 80018c6:	f000 000f 	andlt.w	r0, r0, #15
 80018ca:	b2db      	uxtb	r3, r3
 80018cc:	bfaa      	itet	ge
 80018ce:	f500 4061 	addge.w	r0, r0, #57600	@ 0xe100
 80018d2:	5413      	strblt	r3, [r2, r0]
 80018d4:	f880 3300 	strbge.w	r3, [r0, #768]	@ 0x300
 80018d8:	bd30      	pop	{r4, r5, pc}
 80018da:	bf00      	nop
 80018dc:	e000ed00 	.word	0xe000ed00
 80018e0:	e000ed14 	.word	0xe000ed14

080018e4 <HAL_NVIC_EnableIRQ>:
 80018e4:	2800      	cmp	r0, #0
 80018e6:	db07      	blt.n	80018f8 <HAL_NVIC_EnableIRQ+0x14>
 80018e8:	4a04      	ldr	r2, [pc, #16]	@ (80018fc <HAL_NVIC_EnableIRQ+0x18>)
 80018ea:	0941      	lsrs	r1, r0, #5
 80018ec:	2301      	movs	r3, #1
 80018ee:	f000 001f 	and.w	r0, r0, #31
 80018f2:	4083      	lsls	r3, r0
 80018f4:	f842 3021 	str.w	r3, [r2, r1, lsl #2]
 80018f8:	4770      	bx	lr
 80018fa:	bf00      	nop
 80018fc:	e000e100 	.word	0xe000e100

08001900 <HAL_NVIC_DisableIRQ>:
 8001900:	2800      	cmp	r0, #0
 8001902:	db0c      	blt.n	800191e <HAL_NVIC_DisableIRQ+0x1e>
 8001904:	0943      	lsrs	r3, r0, #5
 8001906:	4906      	ldr	r1, [pc, #24]	@ (8001920 <HAL_NVIC_DisableIRQ+0x20>)
 8001908:	f000 001f 	and.w	r0, r0, #31
 800190c:	3320      	adds	r3, #32
 800190e:	2201      	movs	r2, #1
 8001910:	4082      	lsls	r2, r0
 8001912:	f841 2023 	str.w	r2, [r1, r3, lsl #2]
 8001916:	f3bf 8f4f 	dsb	sy
 800191a:	f3bf 8f6f 	isb	sy
 800191e:	4770      	bx	lr
 8001920:	e000e100 	.word	0xe000e100

08001924 <HAL_NVIC_SystemReset>:
 8001924:	f3bf 8f4f 	dsb	sy
 8001928:	4905      	ldr	r1, [pc, #20]	@ (8001940 <HAL_NVIC_SystemReset+0x1c>)
 800192a:	4b06      	ldr	r3, [pc, #24]	@ (8001944 <HAL_NVIC_SystemReset+0x20>)
 800192c:	68ca      	ldr	r2, [r1, #12]
 800192e:	f402 62e0 	and.w	r2, r2, #1792	@ 0x700
 8001932:	4313      	orrs	r3, r2
 8001934:	60cb      	str	r3, [r1, #12]
 8001936:	f3bf 8f4f 	dsb	sy
 800193a:	bf00      	nop
 800193c:	e7fd      	b.n	800193a <HAL_NVIC_SystemReset+0x16>
 800193e:	bf00      	nop
 8001940:	e000ed00 	.word	0xe000ed00
 8001944:	05fa0004 	.word	0x05fa0004

08001948 <HAL_SYSTICK_Config>:
 8001948:	3801      	subs	r0, #1
 800194a:	f1b0 7f80 	cmp.w	r0, #16777216	@ 0x1000000
 800194e:	d20b      	bcs.n	8001968 <HAL_SYSTICK_Config+0x20>
 8001950:	f04f 23e0 	mov.w	r3, #3758153728	@ 0xe000e000
 8001954:	4a05      	ldr	r2, [pc, #20]	@ (800196c <HAL_SYSTICK_Config+0x24>)
 8001956:	6158      	str	r0, [r3, #20]
 8001958:	21f0      	movs	r1, #240	@ 0xf0
 800195a:	f882 1023 	strb.w	r1, [r2, #35]	@ 0x23
 800195e:	2000      	movs	r0, #0
 8001960:	2207      	movs	r2, #7
 8001962:	6198      	str	r0, [r3, #24]
 8001964:	611a      	str	r2, [r3, #16]
 8001966:	4770      	bx	lr
 8001968:	2001      	movs	r0, #1
 800196a:	4770      	bx	lr
 800196c:	e000ed00 	.word	0xe000ed00

08001970 <DMA_CalcBaseAndBitshift>:
 8001970:	6803      	ldr	r3, [r0, #0]
 8001972:	b510      	push	{r4, lr}
 8001974:	4c08      	ldr	r4, [pc, #32]	@ (8001998 <DMA_CalcBaseAndBitshift+0x28>)
 8001976:	4602      	mov	r2, r0
 8001978:	b2d9      	uxtb	r1, r3
 800197a:	3910      	subs	r1, #16
 800197c:	2018      	movs	r0, #24
 800197e:	fbb1 f0f0 	udiv	r0, r1, r0
 8001982:	5c20      	ldrb	r0, [r4, r0]
 8001984:	65d0      	str	r0, [r2, #92]	@ 0x5c
 8001986:	f423 707f 	bic.w	r0, r3, #1020	@ 0x3fc
 800198a:	f020 0003 	bic.w	r0, r0, #3
 800198e:	295f      	cmp	r1, #95	@ 0x5f
 8001990:	bf88      	it	hi
 8001992:	3004      	addhi	r0, #4
 8001994:	6590      	str	r0, [r2, #88]	@ 0x58
 8001996:	bd10      	pop	{r4, pc}
 8001998:	08004114 	.word	0x08004114

0800199c <HAL_DMA_Init>:
 800199c:	b570      	push	{r4, r5, r6, lr}
 800199e:	4604      	mov	r4, r0
 80019a0:	f7ff fd3a 	bl	8001418 <HAL_GetTick>
 80019a4:	4605      	mov	r5, r0
 80019a6:	2c00      	cmp	r4, #0
 80019a8:	d060      	beq.n	8001a6c <HAL_DMA_Init+0xd0>
 80019aa:	2302      	movs	r3, #2
 80019ac:	f884 3035 	strb.w	r3, [r4, #53]	@ 0x35
 80019b0:	6822      	ldr	r2, [r4, #0]
 80019b2:	2300      	movs	r3, #0
 80019b4:	f884 3034 	strb.w	r3, [r4, #52]	@ 0x34
 80019b8:	6813      	ldr	r3, [r2, #0]
 80019ba:	f023 0301 	bic.w	r3, r3, #1
 80019be:	6013      	str	r3, [r2, #0]
 80019c0:	6822      	ldr	r2, [r4, #0]
 80019c2:	6813      	ldr	r3, [r2, #0]
 80019c4:	07d8      	lsls	r0, r3, #31
 80019c6:	d42e      	bmi.n	8001a26 <HAL_DMA_Init+0x8a>
 80019c8:	6813      	ldr	r3, [r2, #0]
 80019ca:	4832      	ldr	r0, [pc, #200]	@ (8001a94 <HAL_DMA_Init+0xf8>)
 80019cc:	69a1      	ldr	r1, [r4, #24]
 80019ce:	4018      	ands	r0, r3
 80019d0:	e9d4 3501 	ldrd	r3, r5, [r4, #4]
 80019d4:	432b      	orrs	r3, r5
 80019d6:	68e5      	ldr	r5, [r4, #12]
 80019d8:	432b      	orrs	r3, r5
 80019da:	6925      	ldr	r5, [r4, #16]
 80019dc:	432b      	orrs	r3, r5
 80019de:	6965      	ldr	r5, [r4, #20]
 80019e0:	432b      	orrs	r3, r5
 80019e2:	69e5      	ldr	r5, [r4, #28]
 80019e4:	430b      	orrs	r3, r1
 80019e6:	432b      	orrs	r3, r5
 80019e8:	6a25      	ldr	r5, [r4, #32]
 80019ea:	432b      	orrs	r3, r5
 80019ec:	4303      	orrs	r3, r0
 80019ee:	6a60      	ldr	r0, [r4, #36]	@ 0x24
 80019f0:	2804      	cmp	r0, #4
 80019f2:	bf02      	ittt	eq
 80019f4:	e9d4 560b 	ldrdeq	r5, r6, [r4, #44]	@ 0x2c
 80019f8:	4335      	orreq	r5, r6
 80019fa:	432b      	orreq	r3, r5
 80019fc:	6013      	str	r3, [r2, #0]
 80019fe:	6953      	ldr	r3, [r2, #20]
 8001a00:	2804      	cmp	r0, #4
 8001a02:	f023 0307 	bic.w	r3, r3, #7
 8001a06:	ea43 0300 	orr.w	r3, r3, r0
 8001a0a:	d135      	bne.n	8001a78 <HAL_DMA_Init+0xdc>
 8001a0c:	6aa0      	ldr	r0, [r4, #40]	@ 0x28
 8001a0e:	6ae5      	ldr	r5, [r4, #44]	@ 0x2c
 8001a10:	4303      	orrs	r3, r0
 8001a12:	b38d      	cbz	r5, 8001a78 <HAL_DMA_Init+0xdc>
 8001a14:	b991      	cbnz	r1, 8001a3c <HAL_DMA_Init+0xa0>
 8001a16:	2801      	cmp	r0, #1
 8001a18:	d020      	beq.n	8001a5c <HAL_DMA_Init+0xc0>
 8001a1a:	f030 0102 	bics.w	r1, r0, #2
 8001a1e:	d12b      	bne.n	8001a78 <HAL_DMA_Init+0xdc>
 8001a20:	01e9      	lsls	r1, r5, #7
 8001a22:	d529      	bpl.n	8001a78 <HAL_DMA_Init+0xdc>
 8001a24:	e01d      	b.n	8001a62 <HAL_DMA_Init+0xc6>
 8001a26:	f7ff fcf7 	bl	8001418 <HAL_GetTick>
 8001a2a:	1b40      	subs	r0, r0, r5
 8001a2c:	2805      	cmp	r0, #5
 8001a2e:	d9c7      	bls.n	80019c0 <HAL_DMA_Init+0x24>
 8001a30:	2320      	movs	r3, #32
 8001a32:	2003      	movs	r0, #3
 8001a34:	6563      	str	r3, [r4, #84]	@ 0x54
 8001a36:	f884 0035 	strb.w	r0, [r4, #53]	@ 0x35
 8001a3a:	bd70      	pop	{r4, r5, r6, pc}
 8001a3c:	f5b1 5f00 	cmp.w	r1, #8192	@ 0x2000
 8001a40:	d116      	bne.n	8001a70 <HAL_DMA_Init+0xd4>
 8001a42:	2803      	cmp	r0, #3
 8001a44:	d818      	bhi.n	8001a78 <HAL_DMA_Init+0xdc>
 8001a46:	a101      	add	r1, pc, #4	@ (adr r1, 8001a4c <HAL_DMA_Init+0xb0>)
 8001a48:	f851 f020 	ldr.w	pc, [r1, r0, lsl #2]
 8001a4c:	08001a63 	.word	0x08001a63
 8001a50:	08001a21 	.word	0x08001a21
 8001a54:	08001a63 	.word	0x08001a63
 8001a58:	08001a5d 	.word	0x08001a5d
 8001a5c:	f1b5 7fc0 	cmp.w	r5, #25165824	@ 0x1800000
 8001a60:	d10a      	bne.n	8001a78 <HAL_DMA_Init+0xdc>
 8001a62:	2340      	movs	r3, #64	@ 0x40
 8001a64:	6563      	str	r3, [r4, #84]	@ 0x54
 8001a66:	2301      	movs	r3, #1
 8001a68:	f884 3035 	strb.w	r3, [r4, #53]	@ 0x35
 8001a6c:	2001      	movs	r0, #1
 8001a6e:	e7e4      	b.n	8001a3a <HAL_DMA_Init+0x9e>
 8001a70:	2802      	cmp	r0, #2
 8001a72:	d9f6      	bls.n	8001a62 <HAL_DMA_Init+0xc6>
 8001a74:	2803      	cmp	r0, #3
 8001a76:	d0d3      	beq.n	8001a20 <HAL_DMA_Init+0x84>
 8001a78:	6153      	str	r3, [r2, #20]
 8001a7a:	4620      	mov	r0, r4
 8001a7c:	f7ff ff78 	bl	8001970 <DMA_CalcBaseAndBitshift>
 8001a80:	6de2      	ldr	r2, [r4, #92]	@ 0x5c
 8001a82:	233f      	movs	r3, #63	@ 0x3f
 8001a84:	4093      	lsls	r3, r2
 8001a86:	6083      	str	r3, [r0, #8]
 8001a88:	2000      	movs	r0, #0
 8001a8a:	2301      	movs	r3, #1
 8001a8c:	6560      	str	r0, [r4, #84]	@ 0x54
 8001a8e:	f884 3035 	strb.w	r3, [r4, #53]	@ 0x35
 8001a92:	e7d2      	b.n	8001a3a <HAL_DMA_Init+0x9e>
 8001a94:	f010803f 	.word	0xf010803f

08001a98 <HAL_DMA_Start_IT>:
 8001a98:	b570      	push	{r4, r5, r6, lr}
 8001a9a:	f890 4034 	ldrb.w	r4, [r0, #52]	@ 0x34
 8001a9e:	6d86      	ldr	r6, [r0, #88]	@ 0x58
 8001aa0:	2c01      	cmp	r4, #1
 8001aa2:	d030      	beq.n	8001b06 <HAL_DMA_Start_IT+0x6e>
 8001aa4:	2401      	movs	r4, #1
 8001aa6:	f880 4034 	strb.w	r4, [r0, #52]	@ 0x34
 8001aaa:	f890 4035 	ldrb.w	r4, [r0, #53]	@ 0x35
 8001aae:	2c01      	cmp	r4, #1
 8001ab0:	f04f 0400 	mov.w	r4, #0
 8001ab4:	d125      	bne.n	8001b02 <HAL_DMA_Start_IT+0x6a>
 8001ab6:	2502      	movs	r5, #2
 8001ab8:	f880 5035 	strb.w	r5, [r0, #53]	@ 0x35
 8001abc:	6544      	str	r4, [r0, #84]	@ 0x54
 8001abe:	6804      	ldr	r4, [r0, #0]
 8001ac0:	6825      	ldr	r5, [r4, #0]
 8001ac2:	f425 2580 	bic.w	r5, r5, #262144	@ 0x40000
 8001ac6:	6025      	str	r5, [r4, #0]
 8001ac8:	6063      	str	r3, [r4, #4]
 8001aca:	6883      	ldr	r3, [r0, #8]
 8001acc:	2b40      	cmp	r3, #64	@ 0x40
 8001ace:	bf0e      	itee	eq
 8001ad0:	60a2      	streq	r2, [r4, #8]
 8001ad2:	60a1      	strne	r1, [r4, #8]
 8001ad4:	60e2      	strne	r2, [r4, #12]
 8001ad6:	6dc2      	ldr	r2, [r0, #92]	@ 0x5c
 8001ad8:	bf08      	it	eq
 8001ada:	60e1      	streq	r1, [r4, #12]
 8001adc:	233f      	movs	r3, #63	@ 0x3f
 8001ade:	4093      	lsls	r3, r2
 8001ae0:	60b3      	str	r3, [r6, #8]
 8001ae2:	6823      	ldr	r3, [r4, #0]
 8001ae4:	f043 0316 	orr.w	r3, r3, #22
 8001ae8:	6023      	str	r3, [r4, #0]
 8001aea:	6c03      	ldr	r3, [r0, #64]	@ 0x40
 8001aec:	b11b      	cbz	r3, 8001af6 <HAL_DMA_Start_IT+0x5e>
 8001aee:	6823      	ldr	r3, [r4, #0]
 8001af0:	f043 0308 	orr.w	r3, r3, #8
 8001af4:	6023      	str	r3, [r4, #0]
 8001af6:	6823      	ldr	r3, [r4, #0]
 8001af8:	f043 0301 	orr.w	r3, r3, #1
 8001afc:	6023      	str	r3, [r4, #0]
 8001afe:	2000      	movs	r0, #0
 8001b00:	bd70      	pop	{r4, r5, r6, pc}
 8001b02:	f880 4034 	strb.w	r4, [r0, #52]	@ 0x34
 8001b06:	2002      	movs	r0, #2
 8001b08:	e7fa      	b.n	8001b00 <HAL_DMA_Start_IT+0x68>

08001b0a <HAL_DMA_Abort>:
 8001b0a:	b570      	push	{r4, r5, r6, lr}
 8001b0c:	4604      	mov	r4, r0
 8001b0e:	6d86      	ldr	r6, [r0, #88]	@ 0x58
 8001b10:	f7ff fc82 	bl	8001418 <HAL_GetTick>
 8001b14:	f894 3035 	ldrb.w	r3, [r4, #53]	@ 0x35
 8001b18:	2b02      	cmp	r3, #2
 8001b1a:	4605      	mov	r5, r0
 8001b1c:	d006      	beq.n	8001b2c <HAL_DMA_Abort+0x22>
 8001b1e:	2380      	movs	r3, #128	@ 0x80
 8001b20:	6563      	str	r3, [r4, #84]	@ 0x54
 8001b22:	2001      	movs	r0, #1
 8001b24:	2300      	movs	r3, #0
 8001b26:	f884 3034 	strb.w	r3, [r4, #52]	@ 0x34
 8001b2a:	bd70      	pop	{r4, r5, r6, pc}
 8001b2c:	6823      	ldr	r3, [r4, #0]
 8001b2e:	681a      	ldr	r2, [r3, #0]
 8001b30:	f022 0216 	bic.w	r2, r2, #22
 8001b34:	601a      	str	r2, [r3, #0]
 8001b36:	695a      	ldr	r2, [r3, #20]
 8001b38:	f022 0280 	bic.w	r2, r2, #128	@ 0x80
 8001b3c:	615a      	str	r2, [r3, #20]
 8001b3e:	6c22      	ldr	r2, [r4, #64]	@ 0x40
 8001b40:	b90a      	cbnz	r2, 8001b46 <HAL_DMA_Abort+0x3c>
 8001b42:	6ca2      	ldr	r2, [r4, #72]	@ 0x48
 8001b44:	b11a      	cbz	r2, 8001b4e <HAL_DMA_Abort+0x44>
 8001b46:	681a      	ldr	r2, [r3, #0]
 8001b48:	f022 0208 	bic.w	r2, r2, #8
 8001b4c:	601a      	str	r2, [r3, #0]
 8001b4e:	681a      	ldr	r2, [r3, #0]
 8001b50:	f022 0201 	bic.w	r2, r2, #1
 8001b54:	601a      	str	r2, [r3, #0]
 8001b56:	6823      	ldr	r3, [r4, #0]
 8001b58:	6818      	ldr	r0, [r3, #0]
 8001b5a:	f010 0001 	ands.w	r0, r0, #1
 8001b5e:	d107      	bne.n	8001b70 <HAL_DMA_Abort+0x66>
 8001b60:	6de2      	ldr	r2, [r4, #92]	@ 0x5c
 8001b62:	233f      	movs	r3, #63	@ 0x3f
 8001b64:	4093      	lsls	r3, r2
 8001b66:	60b3      	str	r3, [r6, #8]
 8001b68:	2301      	movs	r3, #1
 8001b6a:	f884 3035 	strb.w	r3, [r4, #53]	@ 0x35
 8001b6e:	e7d9      	b.n	8001b24 <HAL_DMA_Abort+0x1a>
 8001b70:	f7ff fc52 	bl	8001418 <HAL_GetTick>
 8001b74:	1b40      	subs	r0, r0, r5
 8001b76:	2805      	cmp	r0, #5
 8001b78:	d9ed      	bls.n	8001b56 <HAL_DMA_Abort+0x4c>
 8001b7a:	2320      	movs	r3, #32
 8001b7c:	2003      	movs	r0, #3
 8001b7e:	6563      	str	r3, [r4, #84]	@ 0x54
 8001b80:	f884 0035 	strb.w	r0, [r4, #53]	@ 0x35
 8001b84:	e7ce      	b.n	8001b24 <HAL_DMA_Abort+0x1a>

08001b86 <HAL_DMA_Abort_IT>:
 8001b86:	f890 3035 	ldrb.w	r3, [r0, #53]	@ 0x35
 8001b8a:	2b02      	cmp	r3, #2
 8001b8c:	d003      	beq.n	8001b96 <HAL_DMA_Abort_IT+0x10>
 8001b8e:	2380      	movs	r3, #128	@ 0x80
 8001b90:	6543      	str	r3, [r0, #84]	@ 0x54
 8001b92:	2001      	movs	r0, #1
 8001b94:	4770      	bx	lr
 8001b96:	6802      	ldr	r2, [r0, #0]
 8001b98:	2305      	movs	r3, #5
 8001b9a:	f880 3035 	strb.w	r3, [r0, #53]	@ 0x35
 8001b9e:	6813      	ldr	r3, [r2, #0]
 8001ba0:	f023 0301 	bic.w	r3, r3, #1
 8001ba4:	6013      	str	r3, [r2, #0]
 8001ba6:	2000      	movs	r0, #0
 8001ba8:	4770      	bx	lr
	...

08001bac <HAL_DMA_IRQHandler>:
 8001bac:	b5f7      	push	{r0, r1, r2, r4, r5, r6, r7, lr}
 8001bae:	2300      	movs	r3, #0
 8001bb0:	9301      	str	r3, [sp, #4]
 8001bb2:	4b5c      	ldr	r3, [pc, #368]	@ (8001d24 <HAL_DMA_IRQHandler+0x178>)
 8001bb4:	6d85      	ldr	r5, [r0, #88]	@ 0x58
 8001bb6:	681f      	ldr	r7, [r3, #0]
 8001bb8:	6dc3      	ldr	r3, [r0, #92]	@ 0x5c
 8001bba:	682e      	ldr	r6, [r5, #0]
 8001bbc:	2208      	movs	r2, #8
 8001bbe:	409a      	lsls	r2, r3
 8001bc0:	4232      	tst	r2, r6
 8001bc2:	4604      	mov	r4, r0
 8001bc4:	d00c      	beq.n	8001be0 <HAL_DMA_IRQHandler+0x34>
 8001bc6:	6801      	ldr	r1, [r0, #0]
 8001bc8:	6808      	ldr	r0, [r1, #0]
 8001bca:	0740      	lsls	r0, r0, #29
 8001bcc:	d508      	bpl.n	8001be0 <HAL_DMA_IRQHandler+0x34>
 8001bce:	6808      	ldr	r0, [r1, #0]
 8001bd0:	f020 0004 	bic.w	r0, r0, #4
 8001bd4:	6008      	str	r0, [r1, #0]
 8001bd6:	60aa      	str	r2, [r5, #8]
 8001bd8:	6d62      	ldr	r2, [r4, #84]	@ 0x54
 8001bda:	f042 0201 	orr.w	r2, r2, #1
 8001bde:	6562      	str	r2, [r4, #84]	@ 0x54
 8001be0:	2201      	movs	r2, #1
 8001be2:	409a      	lsls	r2, r3
 8001be4:	4232      	tst	r2, r6
 8001be6:	d008      	beq.n	8001bfa <HAL_DMA_IRQHandler+0x4e>
 8001be8:	6821      	ldr	r1, [r4, #0]
 8001bea:	6949      	ldr	r1, [r1, #20]
 8001bec:	0609      	lsls	r1, r1, #24
 8001bee:	bf41      	itttt	mi
 8001bf0:	60aa      	strmi	r2, [r5, #8]
 8001bf2:	6d62      	ldrmi	r2, [r4, #84]	@ 0x54
 8001bf4:	f042 0202 	orrmi.w	r2, r2, #2
 8001bf8:	6562      	strmi	r2, [r4, #84]	@ 0x54
 8001bfa:	2204      	movs	r2, #4
 8001bfc:	409a      	lsls	r2, r3
 8001bfe:	4232      	tst	r2, r6
 8001c00:	d008      	beq.n	8001c14 <HAL_DMA_IRQHandler+0x68>
 8001c02:	6821      	ldr	r1, [r4, #0]
 8001c04:	6809      	ldr	r1, [r1, #0]
 8001c06:	0788      	lsls	r0, r1, #30
 8001c08:	bf41      	itttt	mi
 8001c0a:	60aa      	strmi	r2, [r5, #8]
 8001c0c:	6d62      	ldrmi	r2, [r4, #84]	@ 0x54
 8001c0e:	f042 0204 	orrmi.w	r2, r2, #4
 8001c12:	6562      	strmi	r2, [r4, #84]	@ 0x54
 8001c14:	2210      	movs	r2, #16
 8001c16:	409a      	lsls	r2, r3
 8001c18:	4232      	tst	r2, r6
 8001c1a:	d010      	beq.n	8001c3e <HAL_DMA_IRQHandler+0x92>
 8001c1c:	6823      	ldr	r3, [r4, #0]
 8001c1e:	6819      	ldr	r1, [r3, #0]
 8001c20:	0709      	lsls	r1, r1, #28
 8001c22:	d50c      	bpl.n	8001c3e <HAL_DMA_IRQHandler+0x92>
 8001c24:	60aa      	str	r2, [r5, #8]
 8001c26:	681a      	ldr	r2, [r3, #0]
 8001c28:	0350      	lsls	r0, r2, #13
 8001c2a:	d537      	bpl.n	8001c9c <HAL_DMA_IRQHandler+0xf0>
 8001c2c:	681b      	ldr	r3, [r3, #0]
 8001c2e:	0319      	lsls	r1, r3, #12
 8001c30:	d401      	bmi.n	8001c36 <HAL_DMA_IRQHandler+0x8a>
 8001c32:	6c23      	ldr	r3, [r4, #64]	@ 0x40
 8001c34:	e000      	b.n	8001c38 <HAL_DMA_IRQHandler+0x8c>
 8001c36:	6ca3      	ldr	r3, [r4, #72]	@ 0x48
 8001c38:	b10b      	cbz	r3, 8001c3e <HAL_DMA_IRQHandler+0x92>
 8001c3a:	4620      	mov	r0, r4
 8001c3c:	4798      	blx	r3
 8001c3e:	6de1      	ldr	r1, [r4, #92]	@ 0x5c
 8001c40:	2220      	movs	r2, #32
 8001c42:	408a      	lsls	r2, r1
 8001c44:	4232      	tst	r2, r6
 8001c46:	d03a      	beq.n	8001cbe <HAL_DMA_IRQHandler+0x112>
 8001c48:	6823      	ldr	r3, [r4, #0]
 8001c4a:	6818      	ldr	r0, [r3, #0]
 8001c4c:	06c6      	lsls	r6, r0, #27
 8001c4e:	d536      	bpl.n	8001cbe <HAL_DMA_IRQHandler+0x112>
 8001c50:	60aa      	str	r2, [r5, #8]
 8001c52:	f894 2035 	ldrb.w	r2, [r4, #53]	@ 0x35
 8001c56:	2a05      	cmp	r2, #5
 8001c58:	681a      	ldr	r2, [r3, #0]
 8001c5a:	d127      	bne.n	8001cac <HAL_DMA_IRQHandler+0x100>
 8001c5c:	f022 0216 	bic.w	r2, r2, #22
 8001c60:	601a      	str	r2, [r3, #0]
 8001c62:	695a      	ldr	r2, [r3, #20]
 8001c64:	f022 0280 	bic.w	r2, r2, #128	@ 0x80
 8001c68:	615a      	str	r2, [r3, #20]
 8001c6a:	6c22      	ldr	r2, [r4, #64]	@ 0x40
 8001c6c:	b90a      	cbnz	r2, 8001c72 <HAL_DMA_IRQHandler+0xc6>
 8001c6e:	6ca2      	ldr	r2, [r4, #72]	@ 0x48
 8001c70:	b11a      	cbz	r2, 8001c7a <HAL_DMA_IRQHandler+0xce>
 8001c72:	681a      	ldr	r2, [r3, #0]
 8001c74:	f022 0208 	bic.w	r2, r2, #8
 8001c78:	601a      	str	r2, [r3, #0]
 8001c7a:	233f      	movs	r3, #63	@ 0x3f
 8001c7c:	408b      	lsls	r3, r1
 8001c7e:	60ab      	str	r3, [r5, #8]
 8001c80:	2301      	movs	r3, #1
 8001c82:	f884 3035 	strb.w	r3, [r4, #53]	@ 0x35
 8001c86:	2300      	movs	r3, #0
 8001c88:	f884 3034 	strb.w	r3, [r4, #52]	@ 0x34
 8001c8c:	6d23      	ldr	r3, [r4, #80]	@ 0x50
 8001c8e:	2b00      	cmp	r3, #0
 8001c90:	d045      	beq.n	8001d1e <HAL_DMA_IRQHandler+0x172>
 8001c92:	4620      	mov	r0, r4
 8001c94:	b003      	add	sp, #12
 8001c96:	e8bd 40f0 	ldmia.w	sp!, {r4, r5, r6, r7, lr}
 8001c9a:	4718      	bx	r3
 8001c9c:	681a      	ldr	r2, [r3, #0]
 8001c9e:	05d2      	lsls	r2, r2, #23
 8001ca0:	bf5e      	ittt	pl
 8001ca2:	681a      	ldrpl	r2, [r3, #0]
 8001ca4:	f022 0208 	bicpl.w	r2, r2, #8
 8001ca8:	601a      	strpl	r2, [r3, #0]
 8001caa:	e7c2      	b.n	8001c32 <HAL_DMA_IRQHandler+0x86>
 8001cac:	0350      	lsls	r0, r2, #13
 8001cae:	d527      	bpl.n	8001d00 <HAL_DMA_IRQHandler+0x154>
 8001cb0:	681b      	ldr	r3, [r3, #0]
 8001cb2:	0319      	lsls	r1, r3, #12
 8001cb4:	d431      	bmi.n	8001d1a <HAL_DMA_IRQHandler+0x16e>
 8001cb6:	6c63      	ldr	r3, [r4, #68]	@ 0x44
 8001cb8:	b10b      	cbz	r3, 8001cbe <HAL_DMA_IRQHandler+0x112>
 8001cba:	4620      	mov	r0, r4
 8001cbc:	4798      	blx	r3
 8001cbe:	6d63      	ldr	r3, [r4, #84]	@ 0x54
 8001cc0:	b36b      	cbz	r3, 8001d1e <HAL_DMA_IRQHandler+0x172>
 8001cc2:	6d63      	ldr	r3, [r4, #84]	@ 0x54
 8001cc4:	07da      	lsls	r2, r3, #31
 8001cc6:	d519      	bpl.n	8001cfc <HAL_DMA_IRQHandler+0x150>
 8001cc8:	6822      	ldr	r2, [r4, #0]
 8001cca:	f44f 5316 	mov.w	r3, #9600	@ 0x2580
 8001cce:	fbb7 f7f3 	udiv	r7, r7, r3
 8001cd2:	2305      	movs	r3, #5
 8001cd4:	f884 3035 	strb.w	r3, [r4, #53]	@ 0x35
 8001cd8:	6813      	ldr	r3, [r2, #0]
 8001cda:	f023 0301 	bic.w	r3, r3, #1
 8001cde:	6013      	str	r3, [r2, #0]
 8001ce0:	9b01      	ldr	r3, [sp, #4]
 8001ce2:	3301      	adds	r3, #1
 8001ce4:	42bb      	cmp	r3, r7
 8001ce6:	9301      	str	r3, [sp, #4]
 8001ce8:	d802      	bhi.n	8001cf0 <HAL_DMA_IRQHandler+0x144>
 8001cea:	6813      	ldr	r3, [r2, #0]
 8001cec:	07db      	lsls	r3, r3, #31
 8001cee:	d4f7      	bmi.n	8001ce0 <HAL_DMA_IRQHandler+0x134>
 8001cf0:	2301      	movs	r3, #1
 8001cf2:	f884 3035 	strb.w	r3, [r4, #53]	@ 0x35
 8001cf6:	2300      	movs	r3, #0
 8001cf8:	f884 3034 	strb.w	r3, [r4, #52]	@ 0x34
 8001cfc:	6ce3      	ldr	r3, [r4, #76]	@ 0x4c
 8001cfe:	e7c6      	b.n	8001c8e <HAL_DMA_IRQHandler+0xe2>
 8001d00:	681a      	ldr	r2, [r3, #0]
 8001d02:	f412 7280 	ands.w	r2, r2, #256	@ 0x100
 8001d06:	d108      	bne.n	8001d1a <HAL_DMA_IRQHandler+0x16e>
 8001d08:	6819      	ldr	r1, [r3, #0]
 8001d0a:	f021 0110 	bic.w	r1, r1, #16
 8001d0e:	6019      	str	r1, [r3, #0]
 8001d10:	2301      	movs	r3, #1
 8001d12:	f884 3035 	strb.w	r3, [r4, #53]	@ 0x35
 8001d16:	f884 2034 	strb.w	r2, [r4, #52]	@ 0x34
 8001d1a:	6be3      	ldr	r3, [r4, #60]	@ 0x3c
 8001d1c:	e7cc      	b.n	8001cb8 <HAL_DMA_IRQHandler+0x10c>
 8001d1e:	b003      	add	sp, #12
 8001d20:	bdf0      	pop	{r4, r5, r6, r7, pc}
 8001d22:	bf00      	nop
 8001d24:	20000000 	.word	0x20000000

08001d28 <HAL_DMA_GetState>:
 8001d28:	f890 0035 	ldrb.w	r0, [r0, #53]	@ 0x35
 8001d2c:	4770      	bx	lr
	...

08001d30 <HAL_GPIO_Init>:
 8001d30:	e92d 4ff7 	stmdb	sp!, {r0, r1, r2, r4, r5, r6, r7, r8, r9, sl, fp, lr}
 8001d34:	f8df 9180 	ldr.w	r9, [pc, #384]	@ 8001eb8 <HAL_GPIO_Init+0x188>
 8001d38:	4a5d      	ldr	r2, [pc, #372]	@ (8001eb0 <HAL_GPIO_Init+0x180>)
 8001d3a:	2300      	movs	r3, #0
 8001d3c:	680d      	ldr	r5, [r1, #0]
 8001d3e:	2401      	movs	r4, #1
 8001d40:	409c      	lsls	r4, r3
 8001d42:	ea04 0605 	and.w	r6, r4, r5
 8001d46:	43ac      	bics	r4, r5
 8001d48:	f040 80a3 	bne.w	8001e92 <HAL_GPIO_Init+0x162>
 8001d4c:	684d      	ldr	r5, [r1, #4]
 8001d4e:	2703      	movs	r7, #3
 8001d50:	f005 0403 	and.w	r4, r5, #3
 8001d54:	ea4f 0843 	mov.w	r8, r3, lsl #1
 8001d58:	fa07 fc08 	lsl.w	ip, r7, r8
 8001d5c:	1e67      	subs	r7, r4, #1
 8001d5e:	2f01      	cmp	r7, #1
 8001d60:	ea6f 0c0c 	mvn.w	ip, ip
 8001d64:	d834      	bhi.n	8001dd0 <HAL_GPIO_Init+0xa0>
 8001d66:	6887      	ldr	r7, [r0, #8]
 8001d68:	ea07 0e0c 	and.w	lr, r7, ip
 8001d6c:	68cf      	ldr	r7, [r1, #12]
 8001d6e:	fa07 f708 	lsl.w	r7, r7, r8
 8001d72:	ea47 070e 	orr.w	r7, r7, lr
 8001d76:	6087      	str	r7, [r0, #8]
 8001d78:	6847      	ldr	r7, [r0, #4]
 8001d7a:	ea27 0e06 	bic.w	lr, r7, r6
 8001d7e:	f3c5 1700 	ubfx	r7, r5, #4, #1
 8001d82:	409f      	lsls	r7, r3
 8001d84:	ea47 070e 	orr.w	r7, r7, lr
 8001d88:	6047      	str	r7, [r0, #4]
 8001d8a:	68c7      	ldr	r7, [r0, #12]
 8001d8c:	ea07 0e0c 	and.w	lr, r7, ip
 8001d90:	688f      	ldr	r7, [r1, #8]
 8001d92:	fa07 f708 	lsl.w	r7, r7, r8
 8001d96:	ea47 070e 	orr.w	r7, r7, lr
 8001d9a:	2c02      	cmp	r4, #2
 8001d9c:	60c7      	str	r7, [r0, #12]
 8001d9e:	d119      	bne.n	8001dd4 <HAL_GPIO_Init+0xa4>
 8001da0:	ea4f 0ad3 	mov.w	sl, r3, lsr #3
 8001da4:	eb00 0a8a 	add.w	sl, r0, sl, lsl #2
 8001da8:	f003 0b07 	and.w	fp, r3, #7
 8001dac:	f8da 7020 	ldr.w	r7, [sl, #32]
 8001db0:	ea4f 0b8b 	mov.w	fp, fp, lsl #2
 8001db4:	f04f 0e0f 	mov.w	lr, #15
 8001db8:	fa0e fe0b 	lsl.w	lr, lr, fp
 8001dbc:	ea27 0e0e 	bic.w	lr, r7, lr
 8001dc0:	690f      	ldr	r7, [r1, #16]
 8001dc2:	fa07 f70b 	lsl.w	r7, r7, fp
 8001dc6:	ea47 070e 	orr.w	r7, r7, lr
 8001dca:	f8ca 7020 	str.w	r7, [sl, #32]
 8001dce:	e001      	b.n	8001dd4 <HAL_GPIO_Init+0xa4>
 8001dd0:	2c03      	cmp	r4, #3
 8001dd2:	d1da      	bne.n	8001d8a <HAL_GPIO_Init+0x5a>
 8001dd4:	6807      	ldr	r7, [r0, #0]
 8001dd6:	fa04 f408 	lsl.w	r4, r4, r8
 8001dda:	ea07 070c 	and.w	r7, r7, ip
 8001dde:	433c      	orrs	r4, r7
 8001de0:	f415 3f40 	tst.w	r5, #196608	@ 0x30000
 8001de4:	6004      	str	r4, [r0, #0]
 8001de6:	d054      	beq.n	8001e92 <HAL_GPIO_Init+0x162>
 8001de8:	2400      	movs	r4, #0
 8001dea:	9401      	str	r4, [sp, #4]
 8001dec:	f8d9 4044 	ldr.w	r4, [r9, #68]	@ 0x44
 8001df0:	f444 4480 	orr.w	r4, r4, #16384	@ 0x4000
 8001df4:	f8c9 4044 	str.w	r4, [r9, #68]	@ 0x44
 8001df8:	f8d9 4044 	ldr.w	r4, [r9, #68]	@ 0x44
 8001dfc:	f023 0703 	bic.w	r7, r3, #3
 8001e00:	f107 4780 	add.w	r7, r7, #1073741824	@ 0x40000000
 8001e04:	f404 4480 	and.w	r4, r4, #16384	@ 0x4000
 8001e08:	f507 379c 	add.w	r7, r7, #79872	@ 0x13800
 8001e0c:	9401      	str	r4, [sp, #4]
 8001e0e:	f003 0c03 	and.w	ip, r3, #3
 8001e12:	9c01      	ldr	r4, [sp, #4]
 8001e14:	f8d7 e008 	ldr.w	lr, [r7, #8]
 8001e18:	ea4f 0c8c 	mov.w	ip, ip, lsl #2
 8001e1c:	240f      	movs	r4, #15
 8001e1e:	fa04 f40c 	lsl.w	r4, r4, ip
 8001e22:	ea2e 0e04 	bic.w	lr, lr, r4
 8001e26:	4c23      	ldr	r4, [pc, #140]	@ (8001eb4 <HAL_GPIO_Init+0x184>)
 8001e28:	42a0      	cmp	r0, r4
 8001e2a:	d039      	beq.n	8001ea0 <HAL_GPIO_Init+0x170>
 8001e2c:	f504 6480 	add.w	r4, r4, #1024	@ 0x400
 8001e30:	42a0      	cmp	r0, r4
 8001e32:	d037      	beq.n	8001ea4 <HAL_GPIO_Init+0x174>
 8001e34:	f504 6480 	add.w	r4, r4, #1024	@ 0x400
 8001e38:	42a0      	cmp	r0, r4
 8001e3a:	d035      	beq.n	8001ea8 <HAL_GPIO_Init+0x178>
 8001e3c:	f504 6480 	add.w	r4, r4, #1024	@ 0x400
 8001e40:	42a0      	cmp	r0, r4
 8001e42:	d033      	beq.n	8001eac <HAL_GPIO_Init+0x17c>
 8001e44:	f504 6480 	add.w	r4, r4, #1024	@ 0x400
 8001e48:	42a0      	cmp	r0, r4
 8001e4a:	bf14      	ite	ne
 8001e4c:	2407      	movne	r4, #7
 8001e4e:	2404      	moveq	r4, #4
 8001e50:	fa04 f40c 	lsl.w	r4, r4, ip
 8001e54:	ea44 040e 	orr.w	r4, r4, lr
 8001e58:	60bc      	str	r4, [r7, #8]
 8001e5a:	6894      	ldr	r4, [r2, #8]
 8001e5c:	43f7      	mvns	r7, r6
 8001e5e:	f415 1f80 	tst.w	r5, #1048576	@ 0x100000
 8001e62:	bf0c      	ite	eq
 8001e64:	403c      	andeq	r4, r7
 8001e66:	4334      	orrne	r4, r6
 8001e68:	6094      	str	r4, [r2, #8]
 8001e6a:	68d4      	ldr	r4, [r2, #12]
 8001e6c:	f415 1f00 	tst.w	r5, #2097152	@ 0x200000
 8001e70:	bf0c      	ite	eq
 8001e72:	403c      	andeq	r4, r7
 8001e74:	4334      	orrne	r4, r6
 8001e76:	60d4      	str	r4, [r2, #12]
 8001e78:	6854      	ldr	r4, [r2, #4]
 8001e7a:	f415 3f00 	tst.w	r5, #131072	@ 0x20000
 8001e7e:	bf0c      	ite	eq
 8001e80:	403c      	andeq	r4, r7
 8001e82:	4334      	orrne	r4, r6
 8001e84:	6054      	str	r4, [r2, #4]
 8001e86:	6814      	ldr	r4, [r2, #0]
 8001e88:	03ed      	lsls	r5, r5, #15
 8001e8a:	bf54      	ite	pl
 8001e8c:	403c      	andpl	r4, r7
 8001e8e:	4334      	orrmi	r4, r6
 8001e90:	6014      	str	r4, [r2, #0]
 8001e92:	3301      	adds	r3, #1
 8001e94:	2b10      	cmp	r3, #16
 8001e96:	f47f af51 	bne.w	8001d3c <HAL_GPIO_Init+0xc>
 8001e9a:	b003      	add	sp, #12
 8001e9c:	e8bd 8ff0 	ldmia.w	sp!, {r4, r5, r6, r7, r8, r9, sl, fp, pc}
 8001ea0:	2400      	movs	r4, #0
 8001ea2:	e7d5      	b.n	8001e50 <HAL_GPIO_Init+0x120>
 8001ea4:	2401      	movs	r4, #1
 8001ea6:	e7d3      	b.n	8001e50 <HAL_GPIO_Init+0x120>
 8001ea8:	2402      	movs	r4, #2
 8001eaa:	e7d1      	b.n	8001e50 <HAL_GPIO_Init+0x120>
 8001eac:	2403      	movs	r4, #3
 8001eae:	e7cf      	b.n	8001e50 <HAL_GPIO_Init+0x120>
 8001eb0:	40013c00 	.word	0x40013c00
 8001eb4:	40020000 	.word	0x40020000
 8001eb8:	40023800 	.word	0x40023800

08001ebc <HAL_GPIO_WritePin>:
 8001ebc:	b10a      	cbz	r2, 8001ec2 <HAL_GPIO_WritePin+0x6>
 8001ebe:	6181      	str	r1, [r0, #24]
 8001ec0:	4770      	bx	lr
 8001ec2:	0409      	lsls	r1, r1, #16
 8001ec4:	e7fb      	b.n	8001ebe <HAL_GPIO_WritePin+0x2>
	...

08001ec8 <HAL_GPIO_EXTI_IRQHandler>:
 8001ec8:	4a04      	ldr	r2, [pc, #16]	@ (8001edc <HAL_GPIO_EXTI_IRQHandler+0x14>)
 8001eca:	6951      	ldr	r1, [r2, #20]
 8001ecc:	4201      	tst	r1, r0
 8001ece:	b508      	push	{r3, lr}
 8001ed0:	d002      	beq.n	8001ed8 <HAL_GPIO_EXTI_IRQHandler+0x10>
 8001ed2:	6150      	str	r0, [r2, #20]
 8001ed4:	f7fe faf8 	bl	80004c8 <HAL_GPIO_EXTI_Callback>
 8001ed8:	bd08      	pop	{r3, pc}
 8001eda:	bf00      	nop
 8001edc:	40013c00 	.word	0x40013c00

08001ee0 <I2C_IsAcknowledgeFailed>:
 8001ee0:	6801      	ldr	r1, [r0, #0]
 8001ee2:	694b      	ldr	r3, [r1, #20]
 8001ee4:	f413 6380 	ands.w	r3, r3, #1024	@ 0x400
 8001ee8:	f04f 0200 	mov.w	r2, #0
 8001eec:	d010      	beq.n	8001f10 <I2C_IsAcknowledgeFailed+0x30>
 8001eee:	f46f 6380 	mvn.w	r3, #1024	@ 0x400
 8001ef2:	614b      	str	r3, [r1, #20]
 8001ef4:	2320      	movs	r3, #32
 8001ef6:	6302      	str	r2, [r0, #48]	@ 0x30
 8001ef8:	f880 303d 	strb.w	r3, [r0, #61]	@ 0x3d
 8001efc:	f880 203e 	strb.w	r2, [r0, #62]	@ 0x3e
 8001f00:	6c03      	ldr	r3, [r0, #64]	@ 0x40
 8001f02:	f880 203c 	strb.w	r2, [r0, #60]	@ 0x3c
 8001f06:	f043 0304 	orr.w	r3, r3, #4
 8001f0a:	6403      	str	r3, [r0, #64]	@ 0x40
 8001f0c:	2001      	movs	r0, #1
 8001f0e:	4770      	bx	lr
 8001f10:	4618      	mov	r0, r3
 8001f12:	4770      	bx	lr

08001f14 <I2C_WaitOnFlagUntilTimeout>:
 8001f14:	e92d 46f8 	stmdb	sp!, {r3, r4, r5, r6, r7, r9, sl, lr}
 8001f18:	4606      	mov	r6, r0
 8001f1a:	460f      	mov	r7, r1
 8001f1c:	4691      	mov	r9, r2
 8001f1e:	461d      	mov	r5, r3
 8001f20:	ea4f 4a11 	mov.w	sl, r1, lsr #16
 8001f24:	6833      	ldr	r3, [r6, #0]
 8001f26:	f1ba 0f01 	cmp.w	sl, #1
 8001f2a:	bf0c      	ite	eq
 8001f2c:	695c      	ldreq	r4, [r3, #20]
 8001f2e:	699c      	ldrne	r4, [r3, #24]
 8001f30:	ea27 0404 	bic.w	r4, r7, r4
 8001f34:	b2a4      	uxth	r4, r4
 8001f36:	fab4 f484 	clz	r4, r4
 8001f3a:	0964      	lsrs	r4, r4, #5
 8001f3c:	45a1      	cmp	r9, r4
 8001f3e:	d001      	beq.n	8001f44 <I2C_WaitOnFlagUntilTimeout+0x30>
 8001f40:	2000      	movs	r0, #0
 8001f42:	e025      	b.n	8001f90 <I2C_WaitOnFlagUntilTimeout+0x7c>
 8001f44:	1c6a      	adds	r2, r5, #1
 8001f46:	d0ee      	beq.n	8001f26 <I2C_WaitOnFlagUntilTimeout+0x12>
 8001f48:	f7ff fa66 	bl	8001418 <HAL_GetTick>
 8001f4c:	9b08      	ldr	r3, [sp, #32]
 8001f4e:	1ac0      	subs	r0, r0, r3
 8001f50:	42a8      	cmp	r0, r5
 8001f52:	d801      	bhi.n	8001f58 <I2C_WaitOnFlagUntilTimeout+0x44>
 8001f54:	2d00      	cmp	r5, #0
 8001f56:	d1e5      	bne.n	8001f24 <I2C_WaitOnFlagUntilTimeout+0x10>
 8001f58:	6833      	ldr	r3, [r6, #0]
 8001f5a:	f1ba 0f01 	cmp.w	sl, #1
 8001f5e:	bf0c      	ite	eq
 8001f60:	695b      	ldreq	r3, [r3, #20]
 8001f62:	699b      	ldrne	r3, [r3, #24]
 8001f64:	ea27 0303 	bic.w	r3, r7, r3
 8001f68:	b29b      	uxth	r3, r3
 8001f6a:	fab3 f383 	clz	r3, r3
 8001f6e:	095b      	lsrs	r3, r3, #5
 8001f70:	4599      	cmp	r9, r3
 8001f72:	d1d7      	bne.n	8001f24 <I2C_WaitOnFlagUntilTimeout+0x10>
 8001f74:	2300      	movs	r3, #0
 8001f76:	2220      	movs	r2, #32
 8001f78:	6333      	str	r3, [r6, #48]	@ 0x30
 8001f7a:	f886 203d 	strb.w	r2, [r6, #61]	@ 0x3d
 8001f7e:	f886 303e 	strb.w	r3, [r6, #62]	@ 0x3e
 8001f82:	6c32      	ldr	r2, [r6, #64]	@ 0x40
 8001f84:	f886 303c 	strb.w	r3, [r6, #60]	@ 0x3c
 8001f88:	f042 0220 	orr.w	r2, r2, #32
 8001f8c:	6432      	str	r2, [r6, #64]	@ 0x40
 8001f8e:	2001      	movs	r0, #1
 8001f90:	e8bd 86f8 	ldmia.w	sp!, {r3, r4, r5, r6, r7, r9, sl, pc}

08001f94 <I2C_WaitOnMasterAddressFlagUntilTimeout>:
 8001f94:	e92d 41f0 	stmdb	sp!, {r4, r5, r6, r7, r8, lr}
 8001f98:	4604      	mov	r4, r0
 8001f9a:	460f      	mov	r7, r1
 8001f9c:	4616      	mov	r6, r2
 8001f9e:	4698      	mov	r8, r3
 8001fa0:	6825      	ldr	r5, [r4, #0]
 8001fa2:	6968      	ldr	r0, [r5, #20]
 8001fa4:	ea27 0000 	bic.w	r0, r7, r0
 8001fa8:	b280      	uxth	r0, r0
 8001faa:	b1c0      	cbz	r0, 8001fde <I2C_WaitOnMasterAddressFlagUntilTimeout+0x4a>
 8001fac:	696b      	ldr	r3, [r5, #20]
 8001fae:	055a      	lsls	r2, r3, #21
 8001fb0:	d517      	bpl.n	8001fe2 <I2C_WaitOnMasterAddressFlagUntilTimeout+0x4e>
 8001fb2:	682b      	ldr	r3, [r5, #0]
 8001fb4:	f443 7300 	orr.w	r3, r3, #512	@ 0x200
 8001fb8:	602b      	str	r3, [r5, #0]
 8001fba:	f46f 6380 	mvn.w	r3, #1024	@ 0x400
 8001fbe:	616b      	str	r3, [r5, #20]
 8001fc0:	2220      	movs	r2, #32
 8001fc2:	2300      	movs	r3, #0
 8001fc4:	6323      	str	r3, [r4, #48]	@ 0x30
 8001fc6:	f884 203d 	strb.w	r2, [r4, #61]	@ 0x3d
 8001fca:	f884 303e 	strb.w	r3, [r4, #62]	@ 0x3e
 8001fce:	6c23      	ldr	r3, [r4, #64]	@ 0x40
 8001fd0:	f043 0304 	orr.w	r3, r3, #4
 8001fd4:	6423      	str	r3, [r4, #64]	@ 0x40
 8001fd6:	2300      	movs	r3, #0
 8001fd8:	f884 303c 	strb.w	r3, [r4, #60]	@ 0x3c
 8001fdc:	2001      	movs	r0, #1
 8001fde:	e8bd 81f0 	ldmia.w	sp!, {r4, r5, r6, r7, r8, pc}
 8001fe2:	1c73      	adds	r3, r6, #1
 8001fe4:	d0dd      	beq.n	8001fa2 <I2C_WaitOnMasterAddressFlagUntilTimeout+0xe>
 8001fe6:	f7ff fa17 	bl	8001418 <HAL_GetTick>
 8001fea:	eba0 0008 	sub.w	r0, r0, r8
 8001fee:	42b0      	cmp	r0, r6
 8001ff0:	d801      	bhi.n	8001ff6 <I2C_WaitOnMasterAddressFlagUntilTimeout+0x62>
 8001ff2:	2e00      	cmp	r6, #0
 8001ff4:	d1d4      	bne.n	8001fa0 <I2C_WaitOnMasterAddressFlagUntilTimeout+0xc>
 8001ff6:	6823      	ldr	r3, [r4, #0]
 8001ff8:	695a      	ldr	r2, [r3, #20]
 8001ffa:	ea27 0202 	bic.w	r2, r7, r2
 8001ffe:	b292      	uxth	r2, r2
 8002000:	2a00      	cmp	r2, #0
 8002002:	d0cd      	beq.n	8001fa0 <I2C_WaitOnMasterAddressFlagUntilTimeout+0xc>
 8002004:	2300      	movs	r3, #0
 8002006:	2220      	movs	r2, #32
 8002008:	6323      	str	r3, [r4, #48]	@ 0x30
 800200a:	f884 203d 	strb.w	r2, [r4, #61]	@ 0x3d
 800200e:	f884 303e 	strb.w	r3, [r4, #62]	@ 0x3e
 8002012:	6c23      	ldr	r3, [r4, #64]	@ 0x40
 8002014:	4313      	orrs	r3, r2
 8002016:	e7dd      	b.n	8001fd4 <I2C_WaitOnMasterAddressFlagUntilTimeout+0x40>

08002018 <I2C_WaitOnTXEFlagUntilTimeout>:
 8002018:	b570      	push	{r4, r5, r6, lr}
 800201a:	4604      	mov	r4, r0
 800201c:	460d      	mov	r5, r1
 800201e:	4616      	mov	r6, r2
 8002020:	6823      	ldr	r3, [r4, #0]
 8002022:	695b      	ldr	r3, [r3, #20]
 8002024:	061b      	lsls	r3, r3, #24
 8002026:	d501      	bpl.n	800202c <I2C_WaitOnTXEFlagUntilTimeout+0x14>
 8002028:	2000      	movs	r0, #0
 800202a:	e01e      	b.n	800206a <I2C_WaitOnTXEFlagUntilTimeout+0x52>
 800202c:	4620      	mov	r0, r4
 800202e:	f7ff ff57 	bl	8001ee0 <I2C_IsAcknowledgeFailed>
 8002032:	b9c8      	cbnz	r0, 8002068 <I2C_WaitOnTXEFlagUntilTimeout+0x50>
 8002034:	1c6a      	adds	r2, r5, #1
 8002036:	d0f3      	beq.n	8002020 <I2C_WaitOnTXEFlagUntilTimeout+0x8>
 8002038:	f7ff f9ee 	bl	8001418 <HAL_GetTick>
 800203c:	1b80      	subs	r0, r0, r6
 800203e:	42a8      	cmp	r0, r5
 8002040:	d801      	bhi.n	8002046 <I2C_WaitOnTXEFlagUntilTimeout+0x2e>
 8002042:	2d00      	cmp	r5, #0
 8002044:	d1ec      	bne.n	8002020 <I2C_WaitOnTXEFlagUntilTimeout+0x8>
 8002046:	6823      	ldr	r3, [r4, #0]
 8002048:	695b      	ldr	r3, [r3, #20]
 800204a:	f013 0380 	ands.w	r3, r3, #128	@ 0x80
 800204e:	d1e7      	bne.n	8002020 <I2C_WaitOnTXEFlagUntilTimeout+0x8>
 8002050:	2220      	movs	r2, #32
 8002052:	6323      	str	r3, [r4, #48]	@ 0x30
 8002054:	f884 203d 	strb.w	r2, [r4, #61]	@ 0x3d
 8002058:	f884 303e 	strb.w	r3, [r4, #62]	@ 0x3e
 800205c:	6c22      	ldr	r2, [r4, #64]	@ 0x40
 800205e:	f884 303c 	strb.w	r3, [r4, #60]	@ 0x3c
 8002062:	f042 0220 	orr.w	r2, r2, #32
 8002066:	6422      	str	r2, [r4, #64]	@ 0x40
 8002068:	2001      	movs	r0, #1
 800206a:	bd70      	pop	{r4, r5, r6, pc}

0800206c <I2C_WaitOnBTFFlagUntilTimeout>:
 800206c:	b570      	push	{r4, r5, r6, lr}
 800206e:	4604      	mov	r4, r0
 8002070:	460d      	mov	r5, r1
 8002072:	4616      	mov	r6, r2
 8002074:	6823      	ldr	r3, [r4, #0]
 8002076:	695b      	ldr	r3, [r3, #20]
 8002078:	075b      	lsls	r3, r3, #29
 800207a:	d501      	bpl.n	8002080 <I2C_WaitOnBTFFlagUntilTimeout+0x14>
 800207c:	2000      	movs	r0, #0
 800207e:	e01e      	b.n	80020be <I2C_WaitOnBTFFlagUntilTimeout+0x52>
 8002080:	4620      	mov	r0, r4
 8002082:	f7ff ff2d 	bl	8001ee0 <I2C_IsAcknowledgeFailed>
 8002086:	b9c8      	cbnz	r0, 80020bc <I2C_WaitOnBTFFlagUntilTimeout+0x50>
 8002088:	1c6a      	adds	r2, r5, #1
 800208a:	d0f3      	beq.n	8002074 <I2C_WaitOnBTFFlagUntilTimeout+0x8>
 800208c:	f7ff f9c4 	bl	8001418 <HAL_GetTick>
 8002090:	1b80      	subs	r0, r0, r6
 8002092:	42a8      	cmp	r0, r5
 8002094:	d801      	bhi.n	800209a <I2C_WaitOnBTFFlagUntilTimeout+0x2e>
 8002096:	2d00      	cmp	r5, #0
 8002098:	d1ec      	bne.n	8002074 <I2C_WaitOnBTFFlagUntilTimeout+0x8>
 800209a:	6823      	ldr	r3, [r4, #0]
 800209c:	695b      	ldr	r3, [r3, #20]
 800209e:	f013 0304 	ands.w	r3, r3, #4
 80020a2:	d1e7      	bne.n	8002074 <I2C_WaitOnBTFFlagUntilTimeout+0x8>
 80020a4:	2220      	movs	r2, #32
 80020a6:	6323      	str	r3, [r4, #48]	@ 0x30
 80020a8:	f884 203d 	strb.w	r2, [r4, #61]	@ 0x3d
 80020ac:	f884 303e 	strb.w	r3, [r4, #62]	@ 0x3e
 80020b0:	6c22      	ldr	r2, [r4, #64]	@ 0x40
 80020b2:	f884 303c 	strb.w	r3, [r4, #60]	@ 0x3c
 80020b6:	f042 0220 	orr.w	r2, r2, #32
 80020ba:	6422      	str	r2, [r4, #64]	@ 0x40
 80020bc:	2001      	movs	r0, #1
 80020be:	bd70      	pop	{r4, r5, r6, pc}

080020c0 <HAL_I2C_Init>:
 80020c0:	b570      	push	{r4, r5, r6, lr}
 80020c2:	4604      	mov	r4, r0
 80020c4:	b908      	cbnz	r0, 80020ca <HAL_I2C_Init+0xa>
 80020c6:	2001      	movs	r0, #1
 80020c8:	bd70      	pop	{r4, r5, r6, pc}
 80020ca:	f890 303d 	ldrb.w	r3, [r0, #61]	@ 0x3d
 80020ce:	f003 02ff 	and.w	r2, r3, #255	@ 0xff
 80020d2:	b91b      	cbnz	r3, 80020dc <HAL_I2C_Init+0x1c>
 80020d4:	f880 203c 	strb.w	r2, [r0, #60]	@ 0x3c
 80020d8:	f7fe fc8c 	bl	80009f4 <HAL_I2C_MspInit>
 80020dc:	2324      	movs	r3, #36	@ 0x24
 80020de:	f884 303d 	strb.w	r3, [r4, #61]	@ 0x3d
 80020e2:	6823      	ldr	r3, [r4, #0]
 80020e4:	681a      	ldr	r2, [r3, #0]
 80020e6:	f022 0201 	bic.w	r2, r2, #1
 80020ea:	601a      	str	r2, [r3, #0]
 80020ec:	681a      	ldr	r2, [r3, #0]
 80020ee:	f442 4200 	orr.w	r2, r2, #32768	@ 0x8000
 80020f2:	601a      	str	r2, [r3, #0]
 80020f4:	681a      	ldr	r2, [r3, #0]
 80020f6:	f422 4200 	bic.w	r2, r2, #32768	@ 0x8000
 80020fa:	601a      	str	r2, [r3, #0]
 80020fc:	f001 fa2e 	bl	800355c <HAL_RCC_GetPCLK1Freq>
 8002100:	4b3f      	ldr	r3, [pc, #252]	@ (8002200 <HAL_I2C_Init+0x140>)
 8002102:	6865      	ldr	r5, [r4, #4]
 8002104:	429d      	cmp	r5, r3
 8002106:	bf94      	ite	ls
 8002108:	4b3e      	ldrls	r3, [pc, #248]	@ (8002204 <HAL_I2C_Init+0x144>)
 800210a:	4b3f      	ldrhi	r3, [pc, #252]	@ (8002208 <HAL_I2C_Init+0x148>)
 800210c:	4298      	cmp	r0, r3
 800210e:	bf8c      	ite	hi
 8002110:	2300      	movhi	r3, #0
 8002112:	2301      	movls	r3, #1
 8002114:	2b00      	cmp	r3, #0
 8002116:	d1d6      	bne.n	80020c6 <HAL_I2C_Init+0x6>
 8002118:	6822      	ldr	r2, [r4, #0]
 800211a:	4e39      	ldr	r6, [pc, #228]	@ (8002200 <HAL_I2C_Init+0x140>)
 800211c:	6851      	ldr	r1, [r2, #4]
 800211e:	4b3b      	ldr	r3, [pc, #236]	@ (800220c <HAL_I2C_Init+0x14c>)
 8002120:	fbb0 f3f3 	udiv	r3, r0, r3
 8002124:	f021 013f 	bic.w	r1, r1, #63	@ 0x3f
 8002128:	4319      	orrs	r1, r3
 800212a:	42b5      	cmp	r5, r6
 800212c:	6051      	str	r1, [r2, #4]
 800212e:	bf88      	it	hi
 8002130:	f44f 7696 	movhi.w	r6, #300	@ 0x12c
 8002134:	6a11      	ldr	r1, [r2, #32]
 8002136:	bf88      	it	hi
 8002138:	4373      	mulhi	r3, r6
 800213a:	f021 013f 	bic.w	r1, r1, #63	@ 0x3f
 800213e:	bf84      	itt	hi
 8002140:	f44f 767a 	movhi.w	r6, #1000	@ 0x3e8
 8002144:	fbb3 f3f6 	udivhi	r3, r3, r6
 8002148:	3301      	adds	r3, #1
 800214a:	430b      	orrs	r3, r1
 800214c:	6213      	str	r3, [r2, #32]
 800214e:	69d1      	ldr	r1, [r2, #28]
 8002150:	1e43      	subs	r3, r0, #1
 8002152:	482b      	ldr	r0, [pc, #172]	@ (8002200 <HAL_I2C_Init+0x140>)
 8002154:	f421 414f 	bic.w	r1, r1, #52992	@ 0xcf00
 8002158:	4285      	cmp	r5, r0
 800215a:	f021 01ff 	bic.w	r1, r1, #255	@ 0xff
 800215e:	d832      	bhi.n	80021c6 <HAL_I2C_Init+0x106>
 8002160:	006d      	lsls	r5, r5, #1
 8002162:	f640 70fc 	movw	r0, #4092	@ 0xffc
 8002166:	fbb3 f3f5 	udiv	r3, r3, r5
 800216a:	3301      	adds	r3, #1
 800216c:	4203      	tst	r3, r0
 800216e:	d042      	beq.n	80021f6 <HAL_I2C_Init+0x136>
 8002170:	f3c3 030b 	ubfx	r3, r3, #0, #12
 8002174:	4319      	orrs	r1, r3
 8002176:	61d1      	str	r1, [r2, #28]
 8002178:	e9d4 3007 	ldrd	r3, r0, [r4, #28]
 800217c:	6811      	ldr	r1, [r2, #0]
 800217e:	4303      	orrs	r3, r0
 8002180:	f021 01c0 	bic.w	r1, r1, #192	@ 0xc0
 8002184:	430b      	orrs	r3, r1
 8002186:	6013      	str	r3, [r2, #0]
 8002188:	6891      	ldr	r1, [r2, #8]
 800218a:	e9d4 0303 	ldrd	r0, r3, [r4, #12]
 800218e:	f421 4103 	bic.w	r1, r1, #33536	@ 0x8300
 8002192:	4303      	orrs	r3, r0
 8002194:	f021 01ff 	bic.w	r1, r1, #255	@ 0xff
 8002198:	430b      	orrs	r3, r1
 800219a:	6093      	str	r3, [r2, #8]
 800219c:	e9d4 3005 	ldrd	r3, r0, [r4, #20]
 80021a0:	68d1      	ldr	r1, [r2, #12]
 80021a2:	4303      	orrs	r3, r0
 80021a4:	f021 01ff 	bic.w	r1, r1, #255	@ 0xff
 80021a8:	430b      	orrs	r3, r1
 80021aa:	60d3      	str	r3, [r2, #12]
 80021ac:	6813      	ldr	r3, [r2, #0]
 80021ae:	f043 0301 	orr.w	r3, r3, #1
 80021b2:	6013      	str	r3, [r2, #0]
 80021b4:	2000      	movs	r0, #0
 80021b6:	2320      	movs	r3, #32
 80021b8:	6420      	str	r0, [r4, #64]	@ 0x40
 80021ba:	f884 303d 	strb.w	r3, [r4, #61]	@ 0x3d
 80021be:	6320      	str	r0, [r4, #48]	@ 0x30
 80021c0:	f884 003e 	strb.w	r0, [r4, #62]	@ 0x3e
 80021c4:	e780      	b.n	80020c8 <HAL_I2C_Init+0x8>
 80021c6:	68a0      	ldr	r0, [r4, #8]
 80021c8:	b950      	cbnz	r0, 80021e0 <HAL_I2C_Init+0x120>
 80021ca:	eb05 0545 	add.w	r5, r5, r5, lsl #1
 80021ce:	fbb3 f3f5 	udiv	r3, r3, r5
 80021d2:	3301      	adds	r3, #1
 80021d4:	f3c3 030b 	ubfx	r3, r3, #0, #12
 80021d8:	b17b      	cbz	r3, 80021fa <HAL_I2C_Init+0x13a>
 80021da:	f443 4300 	orr.w	r3, r3, #32768	@ 0x8000
 80021de:	e7c9      	b.n	8002174 <HAL_I2C_Init+0xb4>
 80021e0:	2019      	movs	r0, #25
 80021e2:	4368      	muls	r0, r5
 80021e4:	fbb3 f3f0 	udiv	r3, r3, r0
 80021e8:	3301      	adds	r3, #1
 80021ea:	f3c3 030b 	ubfx	r3, r3, #0, #12
 80021ee:	b123      	cbz	r3, 80021fa <HAL_I2C_Init+0x13a>
 80021f0:	f443 4340 	orr.w	r3, r3, #49152	@ 0xc000
 80021f4:	e7be      	b.n	8002174 <HAL_I2C_Init+0xb4>
 80021f6:	2304      	movs	r3, #4
 80021f8:	e7bc      	b.n	8002174 <HAL_I2C_Init+0xb4>
 80021fa:	2301      	movs	r3, #1
 80021fc:	e7ba      	b.n	8002174 <HAL_I2C_Init+0xb4>
 80021fe:	bf00      	nop
 8002200:	000186a0 	.word	0x000186a0
 8002204:	001e847f 	.word	0x001e847f
 8002208:	003d08ff 	.word	0x003d08ff
 800220c:	000f4240 	.word	0x000f4240

08002210 <HAL_I2C_Master_Transmit>:
 8002210:	e92d 43f0 	stmdb	sp!, {r4, r5, r6, r7, r8, r9, lr}
 8002214:	4604      	mov	r4, r0
 8002216:	b085      	sub	sp, #20
 8002218:	4698      	mov	r8, r3
 800221a:	9f0c      	ldr	r7, [sp, #48]	@ 0x30
 800221c:	460d      	mov	r5, r1
 800221e:	4691      	mov	r9, r2
 8002220:	f7ff f8fa 	bl	8001418 <HAL_GetTick>
 8002224:	f894 303d 	ldrb.w	r3, [r4, #61]	@ 0x3d
 8002228:	2b20      	cmp	r3, #32
 800222a:	4606      	mov	r6, r0
 800222c:	d004      	beq.n	8002238 <HAL_I2C_Master_Transmit+0x28>
 800222e:	2502      	movs	r5, #2
 8002230:	4628      	mov	r0, r5
 8002232:	b005      	add	sp, #20
 8002234:	e8bd 83f0 	ldmia.w	sp!, {r4, r5, r6, r7, r8, r9, pc}
 8002238:	9000      	str	r0, [sp, #0]
 800223a:	495e      	ldr	r1, [pc, #376]	@ (80023b4 <HAL_I2C_Master_Transmit+0x1a4>)
 800223c:	2319      	movs	r3, #25
 800223e:	2201      	movs	r2, #1
 8002240:	4620      	mov	r0, r4
 8002242:	f7ff fe67 	bl	8001f14 <I2C_WaitOnFlagUntilTimeout>
 8002246:	2800      	cmp	r0, #0
 8002248:	d1f1      	bne.n	800222e <HAL_I2C_Master_Transmit+0x1e>
 800224a:	f894 303c 	ldrb.w	r3, [r4, #60]	@ 0x3c
 800224e:	2b01      	cmp	r3, #1
 8002250:	d0ed      	beq.n	800222e <HAL_I2C_Master_Transmit+0x1e>
 8002252:	6821      	ldr	r1, [r4, #0]
 8002254:	2301      	movs	r3, #1
 8002256:	f884 303c 	strb.w	r3, [r4, #60]	@ 0x3c
 800225a:	680b      	ldr	r3, [r1, #0]
 800225c:	07da      	lsls	r2, r3, #31
 800225e:	bf5e      	ittt	pl
 8002260:	680b      	ldrpl	r3, [r1, #0]
 8002262:	f043 0301 	orrpl.w	r3, r3, #1
 8002266:	600b      	strpl	r3, [r1, #0]
 8002268:	680b      	ldr	r3, [r1, #0]
 800226a:	f423 6300 	bic.w	r3, r3, #2048	@ 0x800
 800226e:	600b      	str	r3, [r1, #0]
 8002270:	2321      	movs	r3, #33	@ 0x21
 8002272:	f884 303d 	strb.w	r3, [r4, #61]	@ 0x3d
 8002276:	2310      	movs	r3, #16
 8002278:	f884 303e 	strb.w	r3, [r4, #62]	@ 0x3e
 800227c:	2300      	movs	r3, #0
 800227e:	6423      	str	r3, [r4, #64]	@ 0x40
 8002280:	f8a4 802a 	strh.w	r8, [r4, #42]	@ 0x2a
 8002284:	8d63      	ldrh	r3, [r4, #42]	@ 0x2a
 8002286:	8523      	strh	r3, [r4, #40]	@ 0x28
 8002288:	4b4b      	ldr	r3, [pc, #300]	@ (80023b8 <HAL_I2C_Master_Transmit+0x1a8>)
 800228a:	62e3      	str	r3, [r4, #44]	@ 0x2c
 800228c:	6ae3      	ldr	r3, [r4, #44]	@ 0x2c
 800228e:	f8c4 9024 	str.w	r9, [r4, #36]	@ 0x24
 8002292:	2b08      	cmp	r3, #8
 8002294:	d004      	beq.n	80022a0 <HAL_I2C_Master_Transmit+0x90>
 8002296:	2b01      	cmp	r3, #1
 8002298:	d002      	beq.n	80022a0 <HAL_I2C_Master_Transmit+0x90>
 800229a:	f513 3f80 	cmn.w	r3, #65536	@ 0x10000
 800229e:	d104      	bne.n	80022aa <HAL_I2C_Master_Transmit+0x9a>
 80022a0:	680b      	ldr	r3, [r1, #0]
 80022a2:	f443 7380 	orr.w	r3, r3, #256	@ 0x100
 80022a6:	600b      	str	r3, [r1, #0]
 80022a8:	e002      	b.n	80022b0 <HAL_I2C_Master_Transmit+0xa0>
 80022aa:	6b23      	ldr	r3, [r4, #48]	@ 0x30
 80022ac:	2b12      	cmp	r3, #18
 80022ae:	d0f7      	beq.n	80022a0 <HAL_I2C_Master_Transmit+0x90>
 80022b0:	2200      	movs	r2, #0
 80022b2:	9600      	str	r6, [sp, #0]
 80022b4:	463b      	mov	r3, r7
 80022b6:	f04f 1101 	mov.w	r1, #65537	@ 0x10001
 80022ba:	4620      	mov	r0, r4
 80022bc:	f7ff fe2a 	bl	8001f14 <I2C_WaitOnFlagUntilTimeout>
 80022c0:	6822      	ldr	r2, [r4, #0]
 80022c2:	b140      	cbz	r0, 80022d6 <HAL_I2C_Master_Transmit+0xc6>
 80022c4:	6813      	ldr	r3, [r2, #0]
 80022c6:	05db      	lsls	r3, r3, #23
 80022c8:	d401      	bmi.n	80022ce <HAL_I2C_Master_Transmit+0xbe>
 80022ca:	2501      	movs	r5, #1
 80022cc:	e7b0      	b.n	8002230 <HAL_I2C_Master_Transmit+0x20>
 80022ce:	f44f 7300 	mov.w	r3, #512	@ 0x200
 80022d2:	6423      	str	r3, [r4, #64]	@ 0x40
 80022d4:	e7f9      	b.n	80022ca <HAL_I2C_Master_Transmit+0xba>
 80022d6:	6923      	ldr	r3, [r4, #16]
 80022d8:	f5b3 4f80 	cmp.w	r3, #16384	@ 0x4000
 80022dc:	d121      	bne.n	8002322 <HAL_I2C_Master_Transmit+0x112>
 80022de:	f005 05fe 	and.w	r5, r5, #254	@ 0xfe
 80022e2:	6115      	str	r5, [r2, #16]
 80022e4:	4935      	ldr	r1, [pc, #212]	@ (80023bc <HAL_I2C_Master_Transmit+0x1ac>)
 80022e6:	4633      	mov	r3, r6
 80022e8:	463a      	mov	r2, r7
 80022ea:	4620      	mov	r0, r4
 80022ec:	f7ff fe52 	bl	8001f94 <I2C_WaitOnMasterAddressFlagUntilTimeout>
 80022f0:	4605      	mov	r5, r0
 80022f2:	2800      	cmp	r0, #0
 80022f4:	d1e9      	bne.n	80022ca <HAL_I2C_Master_Transmit+0xba>
 80022f6:	6823      	ldr	r3, [r4, #0]
 80022f8:	9003      	str	r0, [sp, #12]
 80022fa:	695a      	ldr	r2, [r3, #20]
 80022fc:	9203      	str	r2, [sp, #12]
 80022fe:	699b      	ldr	r3, [r3, #24]
 8002300:	9303      	str	r3, [sp, #12]
 8002302:	9b03      	ldr	r3, [sp, #12]
 8002304:	8d23      	ldrh	r3, [r4, #40]	@ 0x28
 8002306:	b9f3      	cbnz	r3, 8002346 <HAL_I2C_Master_Transmit+0x136>
 8002308:	6821      	ldr	r1, [r4, #0]
 800230a:	680a      	ldr	r2, [r1, #0]
 800230c:	f442 7200 	orr.w	r2, r2, #512	@ 0x200
 8002310:	600a      	str	r2, [r1, #0]
 8002312:	2220      	movs	r2, #32
 8002314:	f884 203d 	strb.w	r2, [r4, #61]	@ 0x3d
 8002318:	f884 303c 	strb.w	r3, [r4, #60]	@ 0x3c
 800231c:	f884 303e 	strb.w	r3, [r4, #62]	@ 0x3e
 8002320:	e786      	b.n	8002230 <HAL_I2C_Master_Transmit+0x20>
 8002322:	11eb      	asrs	r3, r5, #7
 8002324:	f003 0306 	and.w	r3, r3, #6
 8002328:	f043 03f0 	orr.w	r3, r3, #240	@ 0xf0
 800232c:	6113      	str	r3, [r2, #16]
 800232e:	4924      	ldr	r1, [pc, #144]	@ (80023c0 <HAL_I2C_Master_Transmit+0x1b0>)
 8002330:	4633      	mov	r3, r6
 8002332:	463a      	mov	r2, r7
 8002334:	4620      	mov	r0, r4
 8002336:	f7ff fe2d 	bl	8001f94 <I2C_WaitOnMasterAddressFlagUntilTimeout>
 800233a:	2800      	cmp	r0, #0
 800233c:	d1c5      	bne.n	80022ca <HAL_I2C_Master_Transmit+0xba>
 800233e:	6823      	ldr	r3, [r4, #0]
 8002340:	b2ed      	uxtb	r5, r5
 8002342:	611d      	str	r5, [r3, #16]
 8002344:	e7ce      	b.n	80022e4 <HAL_I2C_Master_Transmit+0xd4>
 8002346:	4632      	mov	r2, r6
 8002348:	4639      	mov	r1, r7
 800234a:	4620      	mov	r0, r4
 800234c:	f7ff fe64 	bl	8002018 <I2C_WaitOnTXEFlagUntilTimeout>
 8002350:	b140      	cbz	r0, 8002364 <HAL_I2C_Master_Transmit+0x154>
 8002352:	6c23      	ldr	r3, [r4, #64]	@ 0x40
 8002354:	2b04      	cmp	r3, #4
 8002356:	d1b8      	bne.n	80022ca <HAL_I2C_Master_Transmit+0xba>
 8002358:	6822      	ldr	r2, [r4, #0]
 800235a:	6813      	ldr	r3, [r2, #0]
 800235c:	f443 7300 	orr.w	r3, r3, #512	@ 0x200
 8002360:	6013      	str	r3, [r2, #0]
 8002362:	e7b2      	b.n	80022ca <HAL_I2C_Master_Transmit+0xba>
 8002364:	6a63      	ldr	r3, [r4, #36]	@ 0x24
 8002366:	6820      	ldr	r0, [r4, #0]
 8002368:	461a      	mov	r2, r3
 800236a:	f812 1b01 	ldrb.w	r1, [r2], #1
 800236e:	6101      	str	r1, [r0, #16]
 8002370:	6262      	str	r2, [r4, #36]	@ 0x24
 8002372:	8d62      	ldrh	r2, [r4, #42]	@ 0x2a
 8002374:	3a01      	subs	r2, #1
 8002376:	b292      	uxth	r2, r2
 8002378:	8562      	strh	r2, [r4, #42]	@ 0x2a
 800237a:	8d22      	ldrh	r2, [r4, #40]	@ 0x28
 800237c:	f8d0 c014 	ldr.w	ip, [r0, #20]
 8002380:	1e51      	subs	r1, r2, #1
 8002382:	b289      	uxth	r1, r1
 8002384:	f01c 0f04 	tst.w	ip, #4
 8002388:	8521      	strh	r1, [r4, #40]	@ 0x28
 800238a:	d00a      	beq.n	80023a2 <HAL_I2C_Master_Transmit+0x192>
 800238c:	b149      	cbz	r1, 80023a2 <HAL_I2C_Master_Transmit+0x192>
 800238e:	7859      	ldrb	r1, [r3, #1]
 8002390:	6101      	str	r1, [r0, #16]
 8002392:	3302      	adds	r3, #2
 8002394:	6263      	str	r3, [r4, #36]	@ 0x24
 8002396:	8d63      	ldrh	r3, [r4, #42]	@ 0x2a
 8002398:	3b01      	subs	r3, #1
 800239a:	b29b      	uxth	r3, r3
 800239c:	3a02      	subs	r2, #2
 800239e:	8563      	strh	r3, [r4, #42]	@ 0x2a
 80023a0:	8522      	strh	r2, [r4, #40]	@ 0x28
 80023a2:	4632      	mov	r2, r6
 80023a4:	4639      	mov	r1, r7
 80023a6:	4620      	mov	r0, r4
 80023a8:	f7ff fe60 	bl	800206c <I2C_WaitOnBTFFlagUntilTimeout>
 80023ac:	2800      	cmp	r0, #0
 80023ae:	d0a9      	beq.n	8002304 <HAL_I2C_Master_Transmit+0xf4>
 80023b0:	e7cf      	b.n	8002352 <HAL_I2C_Master_Transmit+0x142>
 80023b2:	bf00      	nop
 80023b4:	00100002 	.word	0x00100002
 80023b8:	ffff0000 	.word	0xffff0000
 80023bc:	00010002 	.word	0x00010002
 80023c0:	00010008 	.word	0x00010008

080023c4 <HAL_I2C_MasterTxCpltCallback>:
 80023c4:	4770      	bx	lr

080023c6 <HAL_I2C_MasterRxCpltCallback>:
 80023c6:	4770      	bx	lr

080023c8 <HAL_I2C_SlaveTxCpltCallback>:
 80023c8:	4770      	bx	lr

080023ca <HAL_I2C_SlaveRxCpltCallback>:
 80023ca:	4770      	bx	lr

080023cc <HAL_I2C_AddrCallback>:
 80023cc:	4770      	bx	lr

080023ce <HAL_I2C_ListenCpltCallback>:
 80023ce:	4770      	bx	lr

080023d0 <HAL_I2C_MemTxCpltCallback>:
 80023d0:	4770      	bx	lr

080023d2 <I2C_MemoryTransmit_TXE_BTF>:
 80023d2:	f890 203d 	ldrb.w	r2, [r0, #61]	@ 0x3d
 80023d6:	b508      	push	{r3, lr}
 80023d8:	6d03      	ldr	r3, [r0, #80]	@ 0x50
 80023da:	b2d2      	uxtb	r2, r2
 80023dc:	b983      	cbnz	r3, 8002400 <I2C_MemoryTransmit_TXE_BTF+0x2e>
 80023de:	6cc3      	ldr	r3, [r0, #76]	@ 0x4c
 80023e0:	6802      	ldr	r2, [r0, #0]
 80023e2:	2b01      	cmp	r3, #1
 80023e4:	6c83      	ldr	r3, [r0, #72]	@ 0x48
 80023e6:	d105      	bne.n	80023f4 <I2C_MemoryTransmit_TXE_BTF+0x22>
 80023e8:	b2db      	uxtb	r3, r3
 80023ea:	6113      	str	r3, [r2, #16]
 80023ec:	6d03      	ldr	r3, [r0, #80]	@ 0x50
 80023ee:	3302      	adds	r3, #2
 80023f0:	6503      	str	r3, [r0, #80]	@ 0x50
 80023f2:	bd08      	pop	{r3, pc}
 80023f4:	f3c3 2307 	ubfx	r3, r3, #8, #8
 80023f8:	6113      	str	r3, [r2, #16]
 80023fa:	6d03      	ldr	r3, [r0, #80]	@ 0x50
 80023fc:	3301      	adds	r3, #1
 80023fe:	e7f7      	b.n	80023f0 <I2C_MemoryTransmit_TXE_BTF+0x1e>
 8002400:	6d03      	ldr	r3, [r0, #80]	@ 0x50
 8002402:	2b01      	cmp	r3, #1
 8002404:	d103      	bne.n	800240e <I2C_MemoryTransmit_TXE_BTF+0x3c>
 8002406:	6c83      	ldr	r3, [r0, #72]	@ 0x48
 8002408:	6802      	ldr	r2, [r0, #0]
 800240a:	b2db      	uxtb	r3, r3
 800240c:	e7f4      	b.n	80023f8 <I2C_MemoryTransmit_TXE_BTF+0x26>
 800240e:	6d03      	ldr	r3, [r0, #80]	@ 0x50
 8002410:	2b02      	cmp	r3, #2
 8002412:	d12f      	bne.n	8002474 <I2C_MemoryTransmit_TXE_BTF+0xa2>
 8002414:	2a22      	cmp	r2, #34	@ 0x22
 8002416:	d105      	bne.n	8002424 <I2C_MemoryTransmit_TXE_BTF+0x52>
 8002418:	6802      	ldr	r2, [r0, #0]
 800241a:	6813      	ldr	r3, [r2, #0]
 800241c:	f443 7380 	orr.w	r3, r3, #256	@ 0x100
 8002420:	6013      	str	r3, [r2, #0]
 8002422:	e7ea      	b.n	80023fa <I2C_MemoryTransmit_TXE_BTF+0x28>
 8002424:	8d43      	ldrh	r3, [r0, #42]	@ 0x2a
 8002426:	b29b      	uxth	r3, r3
 8002428:	b163      	cbz	r3, 8002444 <I2C_MemoryTransmit_TXE_BTF+0x72>
 800242a:	2a21      	cmp	r2, #33	@ 0x21
 800242c:	d10a      	bne.n	8002444 <I2C_MemoryTransmit_TXE_BTF+0x72>
 800242e:	6a43      	ldr	r3, [r0, #36]	@ 0x24
 8002430:	6802      	ldr	r2, [r0, #0]
 8002432:	f813 1b01 	ldrb.w	r1, [r3], #1
 8002436:	6111      	str	r1, [r2, #16]
 8002438:	6243      	str	r3, [r0, #36]	@ 0x24
 800243a:	8d43      	ldrh	r3, [r0, #42]	@ 0x2a
 800243c:	3b01      	subs	r3, #1
 800243e:	b29b      	uxth	r3, r3
 8002440:	8543      	strh	r3, [r0, #42]	@ 0x2a
 8002442:	e7d6      	b.n	80023f2 <I2C_MemoryTransmit_TXE_BTF+0x20>
 8002444:	8d43      	ldrh	r3, [r0, #42]	@ 0x2a
 8002446:	b29b      	uxth	r3, r3
 8002448:	2b00      	cmp	r3, #0
 800244a:	d1d2      	bne.n	80023f2 <I2C_MemoryTransmit_TXE_BTF+0x20>
 800244c:	2a21      	cmp	r2, #33	@ 0x21
 800244e:	d1d0      	bne.n	80023f2 <I2C_MemoryTransmit_TXE_BTF+0x20>
 8002450:	6802      	ldr	r2, [r0, #0]
 8002452:	6851      	ldr	r1, [r2, #4]
 8002454:	f421 61e0 	bic.w	r1, r1, #1792	@ 0x700
 8002458:	6051      	str	r1, [r2, #4]
 800245a:	6811      	ldr	r1, [r2, #0]
 800245c:	f441 7100 	orr.w	r1, r1, #512	@ 0x200
 8002460:	6011      	str	r1, [r2, #0]
 8002462:	2220      	movs	r2, #32
 8002464:	6303      	str	r3, [r0, #48]	@ 0x30
 8002466:	f880 203d 	strb.w	r2, [r0, #61]	@ 0x3d
 800246a:	f880 303e 	strb.w	r3, [r0, #62]	@ 0x3e
 800246e:	f7ff ffaf 	bl	80023d0 <HAL_I2C_MemTxCpltCallback>
 8002472:	e7be      	b.n	80023f2 <I2C_MemoryTransmit_TXE_BTF+0x20>
 8002474:	6803      	ldr	r3, [r0, #0]
 8002476:	695a      	ldr	r2, [r3, #20]
 8002478:	0612      	lsls	r2, r2, #24
 800247a:	bf44      	itt	mi
 800247c:	2200      	movmi	r2, #0
 800247e:	611a      	strmi	r2, [r3, #16]
 8002480:	e7b7      	b.n	80023f2 <I2C_MemoryTransmit_TXE_BTF+0x20>

08002482 <HAL_I2C_MemRxCpltCallback>:
 8002482:	4770      	bx	lr

08002484 <HAL_I2C_ErrorCallback>:
 8002484:	4770      	bx	lr

08002486 <HAL_I2C_AbortCpltCallback>:
 8002486:	4770      	bx	lr

08002488 <I2C_DMAAbort>:
 8002488:	b537      	push	{r0, r1, r2, r4, r5, lr}
 800248a:	2300      	movs	r3, #0
 800248c:	9301      	str	r3, [sp, #4]
 800248e:	4b2d      	ldr	r3, [pc, #180]	@ (8002544 <I2C_DMAAbort+0xbc>)
 8002490:	6b80      	ldr	r0, [r0, #56]	@ 0x38
 8002492:	681b      	ldr	r3, [r3, #0]
 8002494:	f890 203d 	ldrb.w	r2, [r0, #61]	@ 0x3d
 8002498:	f246 11a8 	movw	r1, #25000	@ 0x61a8
 800249c:	fbb3 f3f1 	udiv	r3, r3, r1
 80024a0:	2123      	movs	r1, #35	@ 0x23
 80024a2:	434b      	muls	r3, r1
 80024a4:	9301      	str	r3, [sp, #4]
 80024a6:	6803      	ldr	r3, [r0, #0]
 80024a8:	b2d2      	uxtb	r2, r2
 80024aa:	9901      	ldr	r1, [sp, #4]
 80024ac:	bb41      	cbnz	r1, 8002500 <I2C_DMAAbort+0x78>
 80024ae:	6c01      	ldr	r1, [r0, #64]	@ 0x40
 80024b0:	f041 0120 	orr.w	r1, r1, #32
 80024b4:	6401      	str	r1, [r0, #64]	@ 0x40
 80024b6:	6b44      	ldr	r4, [r0, #52]	@ 0x34
 80024b8:	b10c      	cbz	r4, 80024be <I2C_DMAAbort+0x36>
 80024ba:	2100      	movs	r1, #0
 80024bc:	63e1      	str	r1, [r4, #60]	@ 0x3c
 80024be:	6b81      	ldr	r1, [r0, #56]	@ 0x38
 80024c0:	b109      	cbz	r1, 80024c6 <I2C_DMAAbort+0x3e>
 80024c2:	2500      	movs	r5, #0
 80024c4:	63cd      	str	r5, [r1, #60]	@ 0x3c
 80024c6:	681d      	ldr	r5, [r3, #0]
 80024c8:	f425 6580 	bic.w	r5, r5, #1024	@ 0x400
 80024cc:	601d      	str	r5, [r3, #0]
 80024ce:	2500      	movs	r5, #0
 80024d0:	8545      	strh	r5, [r0, #42]	@ 0x2a
 80024d2:	b104      	cbz	r4, 80024d6 <I2C_DMAAbort+0x4e>
 80024d4:	6525      	str	r5, [r4, #80]	@ 0x50
 80024d6:	b101      	cbz	r1, 80024da <I2C_DMAAbort+0x52>
 80024d8:	650d      	str	r5, [r1, #80]	@ 0x50
 80024da:	6819      	ldr	r1, [r3, #0]
 80024dc:	f021 0101 	bic.w	r1, r1, #1
 80024e0:	6019      	str	r1, [r3, #0]
 80024e2:	f890 103d 	ldrb.w	r1, [r0, #61]	@ 0x3d
 80024e6:	2960      	cmp	r1, #96	@ 0x60
 80024e8:	d111      	bne.n	800250e <I2C_DMAAbort+0x86>
 80024ea:	2320      	movs	r3, #32
 80024ec:	f880 303d 	strb.w	r3, [r0, #61]	@ 0x3d
 80024f0:	2300      	movs	r3, #0
 80024f2:	f880 303e 	strb.w	r3, [r0, #62]	@ 0x3e
 80024f6:	6403      	str	r3, [r0, #64]	@ 0x40
 80024f8:	f7ff ffc5 	bl	8002486 <HAL_I2C_AbortCpltCallback>
 80024fc:	b003      	add	sp, #12
 80024fe:	bd30      	pop	{r4, r5, pc}
 8002500:	9901      	ldr	r1, [sp, #4]
 8002502:	3901      	subs	r1, #1
 8002504:	9101      	str	r1, [sp, #4]
 8002506:	6819      	ldr	r1, [r3, #0]
 8002508:	0589      	lsls	r1, r1, #22
 800250a:	d4ce      	bmi.n	80024aa <I2C_DMAAbort+0x22>
 800250c:	e7d3      	b.n	80024b6 <I2C_DMAAbort+0x2e>
 800250e:	f002 0228 	and.w	r2, r2, #40	@ 0x28
 8002512:	2a28      	cmp	r2, #40	@ 0x28
 8002514:	d10e      	bne.n	8002534 <I2C_DMAAbort+0xac>
 8002516:	6819      	ldr	r1, [r3, #0]
 8002518:	f041 0101 	orr.w	r1, r1, #1
 800251c:	6019      	str	r1, [r3, #0]
 800251e:	6819      	ldr	r1, [r3, #0]
 8002520:	f441 6180 	orr.w	r1, r1, #1024	@ 0x400
 8002524:	6019      	str	r1, [r3, #0]
 8002526:	2300      	movs	r3, #0
 8002528:	6303      	str	r3, [r0, #48]	@ 0x30
 800252a:	f880 203d 	strb.w	r2, [r0, #61]	@ 0x3d
 800252e:	f7ff ffa9 	bl	8002484 <HAL_I2C_ErrorCallback>
 8002532:	e7e3      	b.n	80024fc <I2C_DMAAbort+0x74>
 8002534:	2320      	movs	r3, #32
 8002536:	f880 303d 	strb.w	r3, [r0, #61]	@ 0x3d
 800253a:	2300      	movs	r3, #0
 800253c:	f880 303e 	strb.w	r3, [r0, #62]	@ 0x3e
 8002540:	e7f5      	b.n	800252e <I2C_DMAAbort+0xa6>
 8002542:	bf00      	nop
 8002544:	20000000 	.word	0x20000000

08002548 <I2C_ITError>:
 8002548:	b510      	push	{r4, lr}
 800254a:	f890 203d 	ldrb.w	r2, [r0, #61]	@ 0x3d
 800254e:	f890 303e 	ldrb.w	r3, [r0, #62]	@ 0x3e
 8002552:	2b10      	cmp	r3, #16
 8002554:	b2d9      	uxtb	r1, r3
 8002556:	4604      	mov	r4, r0
 8002558:	6803      	ldr	r3, [r0, #0]
 800255a:	b2d2      	uxtb	r2, r2
 800255c:	d001      	beq.n	8002562 <I2C_ITError+0x1a>
 800255e:	2940      	cmp	r1, #64	@ 0x40
 8002560:	d113      	bne.n	800258a <I2C_ITError+0x42>
 8002562:	2a22      	cmp	r2, #34	@ 0x22
 8002564:	d111      	bne.n	800258a <I2C_ITError+0x42>
 8002566:	6819      	ldr	r1, [r3, #0]
 8002568:	f421 6100 	bic.w	r1, r1, #2048	@ 0x800
 800256c:	6019      	str	r1, [r3, #0]
 800256e:	6859      	ldr	r1, [r3, #4]
 8002570:	f411 6100 	ands.w	r1, r1, #2048	@ 0x800
 8002574:	d106      	bne.n	8002584 <I2C_ITError+0x3c>
 8002576:	2a60      	cmp	r2, #96	@ 0x60
 8002578:	bf1e      	ittt	ne
 800257a:	2220      	movne	r2, #32
 800257c:	f884 203d 	strbne.w	r2, [r4, #61]	@ 0x3d
 8002580:	f884 103e 	strbne.w	r1, [r4, #62]	@ 0x3e
 8002584:	2200      	movs	r2, #0
 8002586:	6322      	str	r2, [r4, #48]	@ 0x30
 8002588:	e007      	b.n	800259a <I2C_ITError+0x52>
 800258a:	f002 0128 	and.w	r1, r2, #40	@ 0x28
 800258e:	2928      	cmp	r1, #40	@ 0x28
 8002590:	d1ed      	bne.n	800256e <I2C_ITError+0x26>
 8002592:	2200      	movs	r2, #0
 8002594:	6322      	str	r2, [r4, #48]	@ 0x30
 8002596:	f884 103d 	strb.w	r1, [r4, #61]	@ 0x3d
 800259a:	685a      	ldr	r2, [r3, #4]
 800259c:	f412 6200 	ands.w	r2, r2, #2048	@ 0x800
 80025a0:	d04f      	beq.n	8002642 <I2C_ITError+0xfa>
 80025a2:	685a      	ldr	r2, [r3, #4]
 80025a4:	6b60      	ldr	r0, [r4, #52]	@ 0x34
 80025a6:	f422 6200 	bic.w	r2, r2, #2048	@ 0x800
 80025aa:	605a      	str	r2, [r3, #4]
 80025ac:	f890 3035 	ldrb.w	r3, [r0, #53]	@ 0x35
 80025b0:	2b01      	cmp	r3, #1
 80025b2:	4b37      	ldr	r3, [pc, #220]	@ (8002690 <I2C_ITError+0x148>)
 80025b4:	d02b      	beq.n	800260e <I2C_ITError+0xc6>
 80025b6:	6503      	str	r3, [r0, #80]	@ 0x50
 80025b8:	f7ff fae5 	bl	8001b86 <HAL_DMA_Abort_IT>
 80025bc:	b150      	cbz	r0, 80025d4 <I2C_ITError+0x8c>
 80025be:	6822      	ldr	r2, [r4, #0]
 80025c0:	6b60      	ldr	r0, [r4, #52]	@ 0x34
 80025c2:	6813      	ldr	r3, [r2, #0]
 80025c4:	f023 0301 	bic.w	r3, r3, #1
 80025c8:	6013      	str	r3, [r2, #0]
 80025ca:	2320      	movs	r3, #32
 80025cc:	f884 303d 	strb.w	r3, [r4, #61]	@ 0x3d
 80025d0:	6d03      	ldr	r3, [r0, #80]	@ 0x50
 80025d2:	4798      	blx	r3
 80025d4:	6c23      	ldr	r3, [r4, #64]	@ 0x40
 80025d6:	0719      	lsls	r1, r3, #28
 80025d8:	bf1f      	itttt	ne
 80025da:	6822      	ldrne	r2, [r4, #0]
 80025dc:	6853      	ldrne	r3, [r2, #4]
 80025de:	f423 63e0 	bicne.w	r3, r3, #1792	@ 0x700
 80025e2:	6053      	strne	r3, [r2, #4]
 80025e4:	f894 303d 	ldrb.w	r3, [r4, #61]	@ 0x3d
 80025e8:	6c22      	ldr	r2, [r4, #64]	@ 0x40
 80025ea:	0752      	lsls	r2, r2, #29
 80025ec:	b2db      	uxtb	r3, r3
 80025ee:	d50d      	bpl.n	800260c <I2C_ITError+0xc4>
 80025f0:	2b28      	cmp	r3, #40	@ 0x28
 80025f2:	d10b      	bne.n	800260c <I2C_ITError+0xc4>
 80025f4:	4b27      	ldr	r3, [pc, #156]	@ (8002694 <I2C_ITError+0x14c>)
 80025f6:	62e3      	str	r3, [r4, #44]	@ 0x2c
 80025f8:	2220      	movs	r2, #32
 80025fa:	2300      	movs	r3, #0
 80025fc:	6323      	str	r3, [r4, #48]	@ 0x30
 80025fe:	4620      	mov	r0, r4
 8002600:	f884 203d 	strb.w	r2, [r4, #61]	@ 0x3d
 8002604:	f884 303e 	strb.w	r3, [r4, #62]	@ 0x3e
 8002608:	f7ff fee1 	bl	80023ce <HAL_I2C_ListenCpltCallback>
 800260c:	bd10      	pop	{r4, pc}
 800260e:	6ba0      	ldr	r0, [r4, #56]	@ 0x38
 8002610:	6503      	str	r3, [r0, #80]	@ 0x50
 8002612:	f7ff fab8 	bl	8001b86 <HAL_DMA_Abort_IT>
 8002616:	2800      	cmp	r0, #0
 8002618:	d0dc      	beq.n	80025d4 <I2C_ITError+0x8c>
 800261a:	6823      	ldr	r3, [r4, #0]
 800261c:	695a      	ldr	r2, [r3, #20]
 800261e:	0651      	lsls	r1, r2, #25
 8002620:	d505      	bpl.n	800262e <I2C_ITError+0xe6>
 8002622:	691a      	ldr	r2, [r3, #16]
 8002624:	6a63      	ldr	r3, [r4, #36]	@ 0x24
 8002626:	701a      	strb	r2, [r3, #0]
 8002628:	6a63      	ldr	r3, [r4, #36]	@ 0x24
 800262a:	3301      	adds	r3, #1
 800262c:	6263      	str	r3, [r4, #36]	@ 0x24
 800262e:	6822      	ldr	r2, [r4, #0]
 8002630:	6ba0      	ldr	r0, [r4, #56]	@ 0x38
 8002632:	6813      	ldr	r3, [r2, #0]
 8002634:	f023 0301 	bic.w	r3, r3, #1
 8002638:	6013      	str	r3, [r2, #0]
 800263a:	2320      	movs	r3, #32
 800263c:	f884 303d 	strb.w	r3, [r4, #61]	@ 0x3d
 8002640:	e7c6      	b.n	80025d0 <I2C_ITError+0x88>
 8002642:	f894 103d 	ldrb.w	r1, [r4, #61]	@ 0x3d
 8002646:	2960      	cmp	r1, #96	@ 0x60
 8002648:	d115      	bne.n	8002676 <I2C_ITError+0x12e>
 800264a:	2120      	movs	r1, #32
 800264c:	f884 103d 	strb.w	r1, [r4, #61]	@ 0x3d
 8002650:	6422      	str	r2, [r4, #64]	@ 0x40
 8002652:	695a      	ldr	r2, [r3, #20]
 8002654:	0652      	lsls	r2, r2, #25
 8002656:	d505      	bpl.n	8002664 <I2C_ITError+0x11c>
 8002658:	691a      	ldr	r2, [r3, #16]
 800265a:	6a63      	ldr	r3, [r4, #36]	@ 0x24
 800265c:	701a      	strb	r2, [r3, #0]
 800265e:	6a63      	ldr	r3, [r4, #36]	@ 0x24
 8002660:	3301      	adds	r3, #1
 8002662:	6263      	str	r3, [r4, #36]	@ 0x24
 8002664:	6822      	ldr	r2, [r4, #0]
 8002666:	6813      	ldr	r3, [r2, #0]
 8002668:	f023 0301 	bic.w	r3, r3, #1
 800266c:	6013      	str	r3, [r2, #0]
 800266e:	4620      	mov	r0, r4
 8002670:	f7ff ff09 	bl	8002486 <HAL_I2C_AbortCpltCallback>
 8002674:	e7ae      	b.n	80025d4 <I2C_ITError+0x8c>
 8002676:	695a      	ldr	r2, [r3, #20]
 8002678:	0650      	lsls	r0, r2, #25
 800267a:	d505      	bpl.n	8002688 <I2C_ITError+0x140>
 800267c:	691a      	ldr	r2, [r3, #16]
 800267e:	6a63      	ldr	r3, [r4, #36]	@ 0x24
 8002680:	701a      	strb	r2, [r3, #0]
 8002682:	6a63      	ldr	r3, [r4, #36]	@ 0x24
 8002684:	3301      	adds	r3, #1
 8002686:	6263      	str	r3, [r4, #36]	@ 0x24
 8002688:	4620      	mov	r0, r4
 800268a:	f7ff fefb 	bl	8002484 <HAL_I2C_ErrorCallback>
 800268e:	e7a1      	b.n	80025d4 <I2C_ITError+0x8c>
 8002690:	08002489 	.word	0x08002489
 8002694:	ffff0000 	.word	0xffff0000

08002698 <HAL_I2C_EV_IRQHandler>:
 8002698:	b5f0      	push	{r4, r5, r6, r7, lr}
 800269a:	6803      	ldr	r3, [r0, #0]
 800269c:	4604      	mov	r4, r0
 800269e:	685a      	ldr	r2, [r3, #4]
 80026a0:	6ac6      	ldr	r6, [r0, #44]	@ 0x2c
 80026a2:	f890 003e 	ldrb.w	r0, [r0, #62]	@ 0x3e
 80026a6:	f894 103d 	ldrb.w	r1, [r4, #61]	@ 0x3d
 80026aa:	2810      	cmp	r0, #16
 80026ac:	b08f      	sub	sp, #60	@ 0x3c
 80026ae:	b2c5      	uxtb	r5, r0
 80026b0:	b2c9      	uxtb	r1, r1
 80026b2:	d002      	beq.n	80026ba <HAL_I2C_EV_IRQHandler+0x22>
 80026b4:	2d40      	cmp	r5, #64	@ 0x40
 80026b6:	f040 82dd 	bne.w	8002c74 <HAL_I2C_EV_IRQHandler+0x5dc>
 80026ba:	699f      	ldr	r7, [r3, #24]
 80026bc:	6958      	ldr	r0, [r3, #20]
 80026be:	f010 0f01 	tst.w	r0, #1
 80026c2:	d107      	bne.n	80026d4 <HAL_I2C_EV_IRQHandler+0x3c>
 80026c4:	f5b6 0f2a 	cmp.w	r6, #11141120	@ 0xaa0000
 80026c8:	d002      	beq.n	80026d0 <HAL_I2C_EV_IRQHandler+0x38>
 80026ca:	f1b6 4f2a 	cmp.w	r6, #2852126720	@ 0xaa000000
 80026ce:	d151      	bne.n	8002774 <HAL_I2C_EV_IRQHandler+0xdc>
 80026d0:	b00f      	add	sp, #60	@ 0x3c
 80026d2:	bdf0      	pop	{r4, r5, r6, r7, pc}
 80026d4:	0596      	lsls	r6, r2, #22
 80026d6:	d54d      	bpl.n	8002774 <HAL_I2C_EV_IRQHandler+0xdc>
 80026d8:	6ae2      	ldr	r2, [r4, #44]	@ 0x2c
 80026da:	f5b2 0f2a 	cmp.w	r2, #11141120	@ 0xaa0000
 80026de:	d10c      	bne.n	80026fa <HAL_I2C_EV_IRQHandler+0x62>
 80026e0:	2201      	movs	r2, #1
 80026e2:	62e2      	str	r2, [r4, #44]	@ 0x2c
 80026e4:	f894 203e 	ldrb.w	r2, [r4, #62]	@ 0x3e
 80026e8:	2a40      	cmp	r2, #64	@ 0x40
 80026ea:	d111      	bne.n	8002710 <HAL_I2C_EV_IRQHandler+0x78>
 80026ec:	6d22      	ldr	r2, [r4, #80]	@ 0x50
 80026ee:	b952      	cbnz	r2, 8002706 <HAL_I2C_EV_IRQHandler+0x6e>
 80026f0:	6c62      	ldr	r2, [r4, #68]	@ 0x44
 80026f2:	f002 02fe 	and.w	r2, r2, #254	@ 0xfe
 80026f6:	611a      	str	r2, [r3, #16]
 80026f8:	e7ea      	b.n	80026d0 <HAL_I2C_EV_IRQHandler+0x38>
 80026fa:	6ae2      	ldr	r2, [r4, #44]	@ 0x2c
 80026fc:	f1b2 4f2a 	cmp.w	r2, #2852126720	@ 0xaa000000
 8002700:	d1f0      	bne.n	80026e4 <HAL_I2C_EV_IRQHandler+0x4c>
 8002702:	2208      	movs	r2, #8
 8002704:	e7ed      	b.n	80026e2 <HAL_I2C_EV_IRQHandler+0x4a>
 8002706:	6c62      	ldr	r2, [r4, #68]	@ 0x44
 8002708:	f042 0201 	orr.w	r2, r2, #1
 800270c:	b2d2      	uxtb	r2, r2
 800270e:	e7f2      	b.n	80026f6 <HAL_I2C_EV_IRQHandler+0x5e>
 8002710:	6922      	ldr	r2, [r4, #16]
 8002712:	f5b2 4f80 	cmp.w	r2, #16384	@ 0x4000
 8002716:	d11a      	bne.n	800274e <HAL_I2C_EV_IRQHandler+0xb6>
 8002718:	f894 203d 	ldrb.w	r2, [r4, #61]	@ 0x3d
 800271c:	2a21      	cmp	r2, #33	@ 0x21
 800271e:	6c62      	ldr	r2, [r4, #68]	@ 0x44
 8002720:	d111      	bne.n	8002746 <HAL_I2C_EV_IRQHandler+0xae>
 8002722:	f002 02fe 	and.w	r2, r2, #254	@ 0xfe
 8002726:	611a      	str	r2, [r3, #16]
 8002728:	6b62      	ldr	r2, [r4, #52]	@ 0x34
 800272a:	b10a      	cbz	r2, 8002730 <HAL_I2C_EV_IRQHandler+0x98>
 800272c:	6bd2      	ldr	r2, [r2, #60]	@ 0x3c
 800272e:	b92a      	cbnz	r2, 800273c <HAL_I2C_EV_IRQHandler+0xa4>
 8002730:	6ba2      	ldr	r2, [r4, #56]	@ 0x38
 8002732:	2a00      	cmp	r2, #0
 8002734:	d0cc      	beq.n	80026d0 <HAL_I2C_EV_IRQHandler+0x38>
 8002736:	6bd2      	ldr	r2, [r2, #60]	@ 0x3c
 8002738:	2a00      	cmp	r2, #0
 800273a:	d0c9      	beq.n	80026d0 <HAL_I2C_EV_IRQHandler+0x38>
 800273c:	685a      	ldr	r2, [r3, #4]
 800273e:	f442 6200 	orr.w	r2, r2, #2048	@ 0x800
 8002742:	605a      	str	r2, [r3, #4]
 8002744:	e7c4      	b.n	80026d0 <HAL_I2C_EV_IRQHandler+0x38>
 8002746:	f042 0201 	orr.w	r2, r2, #1
 800274a:	b2d2      	uxtb	r2, r2
 800274c:	e7eb      	b.n	8002726 <HAL_I2C_EV_IRQHandler+0x8e>
 800274e:	6d22      	ldr	r2, [r4, #80]	@ 0x50
 8002750:	b932      	cbnz	r2, 8002760 <HAL_I2C_EV_IRQHandler+0xc8>
 8002752:	6c62      	ldr	r2, [r4, #68]	@ 0x44
 8002754:	11d2      	asrs	r2, r2, #7
 8002756:	f002 0206 	and.w	r2, r2, #6
 800275a:	f042 02f0 	orr.w	r2, r2, #240	@ 0xf0
 800275e:	e7ca      	b.n	80026f6 <HAL_I2C_EV_IRQHandler+0x5e>
 8002760:	6d22      	ldr	r2, [r4, #80]	@ 0x50
 8002762:	2a01      	cmp	r2, #1
 8002764:	d1b4      	bne.n	80026d0 <HAL_I2C_EV_IRQHandler+0x38>
 8002766:	6c62      	ldr	r2, [r4, #68]	@ 0x44
 8002768:	11d2      	asrs	r2, r2, #7
 800276a:	f002 0206 	and.w	r2, r2, #6
 800276e:	f042 02f1 	orr.w	r2, r2, #241	@ 0xf1
 8002772:	e7c0      	b.n	80026f6 <HAL_I2C_EV_IRQHandler+0x5e>
 8002774:	0706      	lsls	r6, r0, #28
 8002776:	d503      	bpl.n	8002780 <HAL_I2C_EV_IRQHandler+0xe8>
 8002778:	0596      	lsls	r6, r2, #22
 800277a:	d501      	bpl.n	8002780 <HAL_I2C_EV_IRQHandler+0xe8>
 800277c:	6c62      	ldr	r2, [r4, #68]	@ 0x44
 800277e:	e7e4      	b.n	800274a <HAL_I2C_EV_IRQHandler+0xb2>
 8002780:	0786      	lsls	r6, r0, #30
 8002782:	f140 80e8 	bpl.w	8002956 <HAL_I2C_EV_IRQHandler+0x2be>
 8002786:	0596      	lsls	r6, r2, #22
 8002788:	f140 80e5 	bpl.w	8002956 <HAL_I2C_EV_IRQHandler+0x2be>
 800278c:	f894 103e 	ldrb.w	r1, [r4, #62]	@ 0x3e
 8002790:	6ae2      	ldr	r2, [r4, #44]	@ 0x2c
 8002792:	6b25      	ldr	r5, [r4, #48]	@ 0x30
 8002794:	f894 003d 	ldrb.w	r0, [r4, #61]	@ 0x3d
 8002798:	2822      	cmp	r0, #34	@ 0x22
 800279a:	b2c9      	uxtb	r1, r1
 800279c:	f040 80d3 	bne.w	8002946 <HAL_I2C_EV_IRQHandler+0x2ae>
 80027a0:	6d20      	ldr	r0, [r4, #80]	@ 0x50
 80027a2:	b940      	cbnz	r0, 80027b6 <HAL_I2C_EV_IRQHandler+0x11e>
 80027a4:	2940      	cmp	r1, #64	@ 0x40
 80027a6:	d106      	bne.n	80027b6 <HAL_I2C_EV_IRQHandler+0x11e>
 80027a8:	9001      	str	r0, [sp, #4]
 80027aa:	695a      	ldr	r2, [r3, #20]
 80027ac:	9201      	str	r2, [sp, #4]
 80027ae:	699b      	ldr	r3, [r3, #24]
 80027b0:	9301      	str	r3, [sp, #4]
 80027b2:	9b01      	ldr	r3, [sp, #4]
 80027b4:	e78c      	b.n	80026d0 <HAL_I2C_EV_IRQHandler+0x38>
 80027b6:	6d21      	ldr	r1, [r4, #80]	@ 0x50
 80027b8:	b989      	cbnz	r1, 80027de <HAL_I2C_EV_IRQHandler+0x146>
 80027ba:	6920      	ldr	r0, [r4, #16]
 80027bc:	f5b0 4f40 	cmp.w	r0, #49152	@ 0xc000
 80027c0:	d10d      	bne.n	80027de <HAL_I2C_EV_IRQHandler+0x146>
 80027c2:	9102      	str	r1, [sp, #8]
 80027c4:	695a      	ldr	r2, [r3, #20]
 80027c6:	9202      	str	r2, [sp, #8]
 80027c8:	699a      	ldr	r2, [r3, #24]
 80027ca:	9202      	str	r2, [sp, #8]
 80027cc:	9a02      	ldr	r2, [sp, #8]
 80027ce:	681a      	ldr	r2, [r3, #0]
 80027d0:	f442 7280 	orr.w	r2, r2, #256	@ 0x100
 80027d4:	601a      	str	r2, [r3, #0]
 80027d6:	6d23      	ldr	r3, [r4, #80]	@ 0x50
 80027d8:	3301      	adds	r3, #1
 80027da:	6523      	str	r3, [r4, #80]	@ 0x50
 80027dc:	e778      	b.n	80026d0 <HAL_I2C_EV_IRQHandler+0x38>
 80027de:	8d61      	ldrh	r1, [r4, #42]	@ 0x2a
 80027e0:	b289      	uxth	r1, r1
 80027e2:	b951      	cbnz	r1, 80027fa <HAL_I2C_EV_IRQHandler+0x162>
 80027e4:	9103      	str	r1, [sp, #12]
 80027e6:	695a      	ldr	r2, [r3, #20]
 80027e8:	9203      	str	r2, [sp, #12]
 80027ea:	699a      	ldr	r2, [r3, #24]
 80027ec:	9203      	str	r2, [sp, #12]
 80027ee:	9a03      	ldr	r2, [sp, #12]
 80027f0:	681a      	ldr	r2, [r3, #0]
 80027f2:	f442 7200 	orr.w	r2, r2, #512	@ 0x200
 80027f6:	601a      	str	r2, [r3, #0]
 80027f8:	e019      	b.n	800282e <HAL_I2C_EV_IRQHandler+0x196>
 80027fa:	8d61      	ldrh	r1, [r4, #42]	@ 0x2a
 80027fc:	b289      	uxth	r1, r1
 80027fe:	2901      	cmp	r1, #1
 8002800:	d149      	bne.n	8002896 <HAL_I2C_EV_IRQHandler+0x1fe>
 8002802:	f512 3f80 	cmn.w	r2, #65536	@ 0x10000
 8002806:	d11b      	bne.n	8002840 <HAL_I2C_EV_IRQHandler+0x1a8>
 8002808:	681a      	ldr	r2, [r3, #0]
 800280a:	f422 6280 	bic.w	r2, r2, #1024	@ 0x400
 800280e:	601a      	str	r2, [r3, #0]
 8002810:	685a      	ldr	r2, [r3, #4]
 8002812:	f412 6200 	ands.w	r2, r2, #2048	@ 0x800
 8002816:	d00c      	beq.n	8002832 <HAL_I2C_EV_IRQHandler+0x19a>
 8002818:	681a      	ldr	r2, [r3, #0]
 800281a:	f422 6280 	bic.w	r2, r2, #1024	@ 0x400
 800281e:	601a      	str	r2, [r3, #0]
 8002820:	2200      	movs	r2, #0
 8002822:	9204      	str	r2, [sp, #16]
 8002824:	695a      	ldr	r2, [r3, #20]
 8002826:	9204      	str	r2, [sp, #16]
 8002828:	699b      	ldr	r3, [r3, #24]
 800282a:	9304      	str	r3, [sp, #16]
 800282c:	9b04      	ldr	r3, [sp, #16]
 800282e:	2300      	movs	r3, #0
 8002830:	e7d3      	b.n	80027da <HAL_I2C_EV_IRQHandler+0x142>
 8002832:	9205      	str	r2, [sp, #20]
 8002834:	695a      	ldr	r2, [r3, #20]
 8002836:	9205      	str	r2, [sp, #20]
 8002838:	699a      	ldr	r2, [r3, #24]
 800283a:	9205      	str	r2, [sp, #20]
 800283c:	9a05      	ldr	r2, [sp, #20]
 800283e:	e7d7      	b.n	80027f0 <HAL_I2C_EV_IRQHandler+0x158>
 8002840:	2a08      	cmp	r2, #8
 8002842:	d01c      	beq.n	800287e <HAL_I2C_EV_IRQHandler+0x1e6>
 8002844:	2a20      	cmp	r2, #32
 8002846:	d01a      	beq.n	800287e <HAL_I2C_EV_IRQHandler+0x1e6>
 8002848:	2d12      	cmp	r5, #18
 800284a:	d10d      	bne.n	8002868 <HAL_I2C_EV_IRQHandler+0x1d0>
 800284c:	2a01      	cmp	r2, #1
 800284e:	d116      	bne.n	800287e <HAL_I2C_EV_IRQHandler+0x1e6>
 8002850:	681a      	ldr	r2, [r3, #0]
 8002852:	f422 6280 	bic.w	r2, r2, #1024	@ 0x400
 8002856:	601a      	str	r2, [r3, #0]
 8002858:	2200      	movs	r2, #0
 800285a:	9206      	str	r2, [sp, #24]
 800285c:	695a      	ldr	r2, [r3, #20]
 800285e:	9206      	str	r2, [sp, #24]
 8002860:	699b      	ldr	r3, [r3, #24]
 8002862:	9306      	str	r3, [sp, #24]
 8002864:	9b06      	ldr	r3, [sp, #24]
 8002866:	e7e2      	b.n	800282e <HAL_I2C_EV_IRQHandler+0x196>
 8002868:	2a10      	cmp	r2, #16
 800286a:	d8f1      	bhi.n	8002850 <HAL_I2C_EV_IRQHandler+0x1b8>
 800286c:	4982      	ldr	r1, [pc, #520]	@ (8002a78 <HAL_I2C_EV_IRQHandler+0x3e0>)
 800286e:	fa41 f202 	asr.w	r2, r1, r2
 8002872:	07d7      	lsls	r7, r2, #31
 8002874:	d4ec      	bmi.n	8002850 <HAL_I2C_EV_IRQHandler+0x1b8>
 8002876:	681a      	ldr	r2, [r3, #0]
 8002878:	f442 6280 	orr.w	r2, r2, #1024	@ 0x400
 800287c:	e7eb      	b.n	8002856 <HAL_I2C_EV_IRQHandler+0x1be>
 800287e:	681a      	ldr	r2, [r3, #0]
 8002880:	f422 6280 	bic.w	r2, r2, #1024	@ 0x400
 8002884:	601a      	str	r2, [r3, #0]
 8002886:	2200      	movs	r2, #0
 8002888:	9207      	str	r2, [sp, #28]
 800288a:	695a      	ldr	r2, [r3, #20]
 800288c:	9207      	str	r2, [sp, #28]
 800288e:	699a      	ldr	r2, [r3, #24]
 8002890:	9207      	str	r2, [sp, #28]
 8002892:	9a07      	ldr	r2, [sp, #28]
 8002894:	e7ac      	b.n	80027f0 <HAL_I2C_EV_IRQHandler+0x158>
 8002896:	8d61      	ldrh	r1, [r4, #42]	@ 0x2a
 8002898:	b289      	uxth	r1, r1
 800289a:	2902      	cmp	r1, #2
 800289c:	d130      	bne.n	8002900 <HAL_I2C_EV_IRQHandler+0x268>
 800289e:	2a10      	cmp	r2, #16
 80028a0:	d803      	bhi.n	80028aa <HAL_I2C_EV_IRQHandler+0x212>
 80028a2:	4976      	ldr	r1, [pc, #472]	@ (8002a7c <HAL_I2C_EV_IRQHandler+0x3e4>)
 80028a4:	40d1      	lsrs	r1, r2
 80028a6:	07ce      	lsls	r6, r1, #31
 80028a8:	d418      	bmi.n	80028dc <HAL_I2C_EV_IRQHandler+0x244>
 80028aa:	6819      	ldr	r1, [r3, #0]
 80028ac:	f421 6180 	bic.w	r1, r1, #1024	@ 0x400
 80028b0:	6019      	str	r1, [r3, #0]
 80028b2:	6819      	ldr	r1, [r3, #0]
 80028b4:	f441 6100 	orr.w	r1, r1, #2048	@ 0x800
 80028b8:	6019      	str	r1, [r3, #0]
 80028ba:	6859      	ldr	r1, [r3, #4]
 80028bc:	050d      	lsls	r5, r1, #20
 80028be:	d505      	bpl.n	80028cc <HAL_I2C_EV_IRQHandler+0x234>
 80028c0:	2a20      	cmp	r2, #32
 80028c2:	d81a      	bhi.n	80028fa <HAL_I2C_EV_IRQHandler+0x262>
 80028c4:	2a07      	cmp	r2, #7
 80028c6:	d80d      	bhi.n	80028e4 <HAL_I2C_EV_IRQHandler+0x24c>
 80028c8:	2a01      	cmp	r2, #1
 80028ca:	d011      	beq.n	80028f0 <HAL_I2C_EV_IRQHandler+0x258>
 80028cc:	2200      	movs	r2, #0
 80028ce:	9208      	str	r2, [sp, #32]
 80028d0:	695a      	ldr	r2, [r3, #20]
 80028d2:	9208      	str	r2, [sp, #32]
 80028d4:	699b      	ldr	r3, [r3, #24]
 80028d6:	9308      	str	r3, [sp, #32]
 80028d8:	9b08      	ldr	r3, [sp, #32]
 80028da:	e7a8      	b.n	800282e <HAL_I2C_EV_IRQHandler+0x196>
 80028dc:	6819      	ldr	r1, [r3, #0]
 80028de:	f441 6180 	orr.w	r1, r1, #1024	@ 0x400
 80028e2:	e7e9      	b.n	80028b8 <HAL_I2C_EV_IRQHandler+0x220>
 80028e4:	f1a2 0108 	sub.w	r1, r2, #8
 80028e8:	4a65      	ldr	r2, [pc, #404]	@ (8002a80 <HAL_I2C_EV_IRQHandler+0x3e8>)
 80028ea:	40ca      	lsrs	r2, r1
 80028ec:	07d0      	lsls	r0, r2, #31
 80028ee:	d5ed      	bpl.n	80028cc <HAL_I2C_EV_IRQHandler+0x234>
 80028f0:	685a      	ldr	r2, [r3, #4]
 80028f2:	f442 5280 	orr.w	r2, r2, #4096	@ 0x1000
 80028f6:	605a      	str	r2, [r3, #4]
 80028f8:	e7e8      	b.n	80028cc <HAL_I2C_EV_IRQHandler+0x234>
 80028fa:	f512 3f80 	cmn.w	r2, #65536	@ 0x10000
 80028fe:	e7e4      	b.n	80028ca <HAL_I2C_EV_IRQHandler+0x232>
 8002900:	6819      	ldr	r1, [r3, #0]
 8002902:	f441 6180 	orr.w	r1, r1, #1024	@ 0x400
 8002906:	6019      	str	r1, [r3, #0]
 8002908:	6859      	ldr	r1, [r3, #4]
 800290a:	0509      	lsls	r1, r1, #20
 800290c:	d505      	bpl.n	800291a <HAL_I2C_EV_IRQHandler+0x282>
 800290e:	2a20      	cmp	r2, #32
 8002910:	d816      	bhi.n	8002940 <HAL_I2C_EV_IRQHandler+0x2a8>
 8002912:	2a07      	cmp	r2, #7
 8002914:	d809      	bhi.n	800292a <HAL_I2C_EV_IRQHandler+0x292>
 8002916:	2a01      	cmp	r2, #1
 8002918:	d00d      	beq.n	8002936 <HAL_I2C_EV_IRQHandler+0x29e>
 800291a:	2200      	movs	r2, #0
 800291c:	9209      	str	r2, [sp, #36]	@ 0x24
 800291e:	695a      	ldr	r2, [r3, #20]
 8002920:	9209      	str	r2, [sp, #36]	@ 0x24
 8002922:	699b      	ldr	r3, [r3, #24]
 8002924:	9309      	str	r3, [sp, #36]	@ 0x24
 8002926:	9b09      	ldr	r3, [sp, #36]	@ 0x24
 8002928:	e781      	b.n	800282e <HAL_I2C_EV_IRQHandler+0x196>
 800292a:	f1a2 0108 	sub.w	r1, r2, #8
 800292e:	4a54      	ldr	r2, [pc, #336]	@ (8002a80 <HAL_I2C_EV_IRQHandler+0x3e8>)
 8002930:	40ca      	lsrs	r2, r1
 8002932:	07d2      	lsls	r2, r2, #31
 8002934:	d5f1      	bpl.n	800291a <HAL_I2C_EV_IRQHandler+0x282>
 8002936:	685a      	ldr	r2, [r3, #4]
 8002938:	f442 5280 	orr.w	r2, r2, #4096	@ 0x1000
 800293c:	605a      	str	r2, [r3, #4]
 800293e:	e7ec      	b.n	800291a <HAL_I2C_EV_IRQHandler+0x282>
 8002940:	f512 3f80 	cmn.w	r2, #65536	@ 0x10000
 8002944:	e7e8      	b.n	8002918 <HAL_I2C_EV_IRQHandler+0x280>
 8002946:	2200      	movs	r2, #0
 8002948:	920a      	str	r2, [sp, #40]	@ 0x28
 800294a:	695a      	ldr	r2, [r3, #20]
 800294c:	920a      	str	r2, [sp, #40]	@ 0x28
 800294e:	699b      	ldr	r3, [r3, #24]
 8002950:	930a      	str	r3, [sp, #40]	@ 0x28
 8002952:	9b0a      	ldr	r3, [sp, #40]	@ 0x28
 8002954:	e6bc      	b.n	80026d0 <HAL_I2C_EV_IRQHandler+0x38>
 8002956:	077f      	lsls	r7, r7, #29
 8002958:	f140 8094 	bpl.w	8002a84 <HAL_I2C_EV_IRQHandler+0x3ec>
 800295c:	685e      	ldr	r6, [r3, #4]
 800295e:	0536      	lsls	r6, r6, #20
 8002960:	f53f aeb6 	bmi.w	80026d0 <HAL_I2C_EV_IRQHandler+0x38>
 8002964:	0607      	lsls	r7, r0, #24
 8002966:	f000 0604 	and.w	r6, r0, #4
 800296a:	d53e      	bpl.n	80029ea <HAL_I2C_EV_IRQHandler+0x352>
 800296c:	0550      	lsls	r0, r2, #21
 800296e:	d53c      	bpl.n	80029ea <HAL_I2C_EV_IRQHandler+0x352>
 8002970:	2e00      	cmp	r6, #0
 8002972:	d13d      	bne.n	80029f0 <HAL_I2C_EV_IRQHandler+0x358>
 8002974:	f894 203d 	ldrb.w	r2, [r4, #61]	@ 0x3d
 8002978:	8d25      	ldrh	r5, [r4, #40]	@ 0x28
 800297a:	f894 103e 	ldrb.w	r1, [r4, #62]	@ 0x3e
 800297e:	6ae0      	ldr	r0, [r4, #44]	@ 0x2c
 8002980:	b2d2      	uxtb	r2, r2
 8002982:	b2c9      	uxtb	r1, r1
 8002984:	b9c5      	cbnz	r5, 80029b8 <HAL_I2C_EV_IRQHandler+0x320>
 8002986:	2a21      	cmp	r2, #33	@ 0x21
 8002988:	d118      	bne.n	80029bc <HAL_I2C_EV_IRQHandler+0x324>
 800298a:	2808      	cmp	r0, #8
 800298c:	d058      	beq.n	8002a40 <HAL_I2C_EV_IRQHandler+0x3a8>
 800298e:	2820      	cmp	r0, #32
 8002990:	d056      	beq.n	8002a40 <HAL_I2C_EV_IRQHandler+0x3a8>
 8002992:	f510 3f80 	cmn.w	r0, #65536	@ 0x10000
 8002996:	d053      	beq.n	8002a40 <HAL_I2C_EV_IRQHandler+0x3a8>
 8002998:	685a      	ldr	r2, [r3, #4]
 800299a:	f422 62e0 	bic.w	r2, r2, #1792	@ 0x700
 800299e:	605a      	str	r2, [r3, #4]
 80029a0:	2311      	movs	r3, #17
 80029a2:	6323      	str	r3, [r4, #48]	@ 0x30
 80029a4:	2300      	movs	r3, #0
 80029a6:	f884 303e 	strb.w	r3, [r4, #62]	@ 0x3e
 80029aa:	2320      	movs	r3, #32
 80029ac:	f884 303d 	strb.w	r3, [r4, #61]	@ 0x3d
 80029b0:	4620      	mov	r0, r4
 80029b2:	f7ff fd07 	bl	80023c4 <HAL_I2C_MasterTxCpltCallback>
 80029b6:	e68b      	b.n	80026d0 <HAL_I2C_EV_IRQHandler+0x38>
 80029b8:	2a21      	cmp	r2, #33	@ 0x21
 80029ba:	d005      	beq.n	80029c8 <HAL_I2C_EV_IRQHandler+0x330>
 80029bc:	2940      	cmp	r1, #64	@ 0x40
 80029be:	f47f ae87 	bne.w	80026d0 <HAL_I2C_EV_IRQHandler+0x38>
 80029c2:	2a22      	cmp	r2, #34	@ 0x22
 80029c4:	f47f ae84 	bne.w	80026d0 <HAL_I2C_EV_IRQHandler+0x38>
 80029c8:	8d62      	ldrh	r2, [r4, #42]	@ 0x2a
 80029ca:	b292      	uxth	r2, r2
 80029cc:	b91a      	cbnz	r2, 80029d6 <HAL_I2C_EV_IRQHandler+0x33e>
 80029ce:	685a      	ldr	r2, [r3, #4]
 80029d0:	f422 6280 	bic.w	r2, r2, #1024	@ 0x400
 80029d4:	e6b5      	b.n	8002742 <HAL_I2C_EV_IRQHandler+0xaa>
 80029d6:	f894 203e 	ldrb.w	r2, [r4, #62]	@ 0x3e
 80029da:	2a40      	cmp	r2, #64	@ 0x40
 80029dc:	d116      	bne.n	8002a0c <HAL_I2C_EV_IRQHandler+0x374>
 80029de:	4620      	mov	r0, r4
 80029e0:	b00f      	add	sp, #60	@ 0x3c
 80029e2:	e8bd 40f0 	ldmia.w	sp!, {r4, r5, r6, r7, lr}
 80029e6:	f7ff bcf4 	b.w	80023d2 <I2C_MemoryTransmit_TXE_BTF>
 80029ea:	2e00      	cmp	r6, #0
 80029ec:	f43f ae70 	beq.w	80026d0 <HAL_I2C_EV_IRQHandler+0x38>
 80029f0:	0597      	lsls	r7, r2, #22
 80029f2:	f57f ae6d 	bpl.w	80026d0 <HAL_I2C_EV_IRQHandler+0x38>
 80029f6:	2921      	cmp	r1, #33	@ 0x21
 80029f8:	d139      	bne.n	8002a6e <HAL_I2C_EV_IRQHandler+0x3d6>
 80029fa:	6ae1      	ldr	r1, [r4, #44]	@ 0x2c
 80029fc:	f894 203d 	ldrb.w	r2, [r4, #61]	@ 0x3d
 8002a00:	2a21      	cmp	r2, #33	@ 0x21
 8002a02:	f47f ae65 	bne.w	80026d0 <HAL_I2C_EV_IRQHandler+0x38>
 8002a06:	8d62      	ldrh	r2, [r4, #42]	@ 0x2a
 8002a08:	b292      	uxth	r2, r2
 8002a0a:	b14a      	cbz	r2, 8002a20 <HAL_I2C_EV_IRQHandler+0x388>
 8002a0c:	6a62      	ldr	r2, [r4, #36]	@ 0x24
 8002a0e:	f812 1b01 	ldrb.w	r1, [r2], #1
 8002a12:	6119      	str	r1, [r3, #16]
 8002a14:	6262      	str	r2, [r4, #36]	@ 0x24
 8002a16:	8d63      	ldrh	r3, [r4, #42]	@ 0x2a
 8002a18:	3b01      	subs	r3, #1
 8002a1a:	b29b      	uxth	r3, r3
 8002a1c:	8563      	strh	r3, [r4, #42]	@ 0x2a
 8002a1e:	e657      	b.n	80026d0 <HAL_I2C_EV_IRQHandler+0x38>
 8002a20:	2908      	cmp	r1, #8
 8002a22:	d00d      	beq.n	8002a40 <HAL_I2C_EV_IRQHandler+0x3a8>
 8002a24:	2920      	cmp	r1, #32
 8002a26:	d00b      	beq.n	8002a40 <HAL_I2C_EV_IRQHandler+0x3a8>
 8002a28:	f511 3f80 	cmn.w	r1, #65536	@ 0x10000
 8002a2c:	d008      	beq.n	8002a40 <HAL_I2C_EV_IRQHandler+0x3a8>
 8002a2e:	6859      	ldr	r1, [r3, #4]
 8002a30:	f421 61e0 	bic.w	r1, r1, #1792	@ 0x700
 8002a34:	6059      	str	r1, [r3, #4]
 8002a36:	2311      	movs	r3, #17
 8002a38:	6323      	str	r3, [r4, #48]	@ 0x30
 8002a3a:	f884 203e 	strb.w	r2, [r4, #62]	@ 0x3e
 8002a3e:	e7b4      	b.n	80029aa <HAL_I2C_EV_IRQHandler+0x312>
 8002a40:	685a      	ldr	r2, [r3, #4]
 8002a42:	f422 62e0 	bic.w	r2, r2, #1792	@ 0x700
 8002a46:	605a      	str	r2, [r3, #4]
 8002a48:	681a      	ldr	r2, [r3, #0]
 8002a4a:	f442 7200 	orr.w	r2, r2, #512	@ 0x200
 8002a4e:	601a      	str	r2, [r3, #0]
 8002a50:	2300      	movs	r3, #0
 8002a52:	2220      	movs	r2, #32
 8002a54:	6323      	str	r3, [r4, #48]	@ 0x30
 8002a56:	f884 203d 	strb.w	r2, [r4, #61]	@ 0x3d
 8002a5a:	f894 203e 	ldrb.w	r2, [r4, #62]	@ 0x3e
 8002a5e:	f884 303e 	strb.w	r3, [r4, #62]	@ 0x3e
 8002a62:	2a40      	cmp	r2, #64	@ 0x40
 8002a64:	4620      	mov	r0, r4
 8002a66:	d1a4      	bne.n	80029b2 <HAL_I2C_EV_IRQHandler+0x31a>
 8002a68:	f7ff fcb2 	bl	80023d0 <HAL_I2C_MemTxCpltCallback>
 8002a6c:	e630      	b.n	80026d0 <HAL_I2C_EV_IRQHandler+0x38>
 8002a6e:	2d40      	cmp	r5, #64	@ 0x40
 8002a70:	f47f ae2e 	bne.w	80026d0 <HAL_I2C_EV_IRQHandler+0x38>
 8002a74:	e7b3      	b.n	80029de <HAL_I2C_EV_IRQHandler+0x346>
 8002a76:	bf00      	nop
 8002a78:	fffeffeb 	.word	0xfffeffeb
 8002a7c:	00010014 	.word	0x00010014
 8002a80:	01000101 	.word	0x01000101
 8002a84:	6859      	ldr	r1, [r3, #4]
 8002a86:	050e      	lsls	r6, r1, #20
 8002a88:	f53f ae22 	bmi.w	80026d0 <HAL_I2C_EV_IRQHandler+0x38>
 8002a8c:	0645      	lsls	r5, r0, #25
 8002a8e:	f000 0104 	and.w	r1, r0, #4
 8002a92:	f140 8086 	bpl.w	8002ba2 <HAL_I2C_EV_IRQHandler+0x50a>
 8002a96:	0550      	lsls	r0, r2, #21
 8002a98:	f140 8083 	bpl.w	8002ba2 <HAL_I2C_EV_IRQHandler+0x50a>
 8002a9c:	2900      	cmp	r1, #0
 8002a9e:	f040 8083 	bne.w	8002ba8 <HAL_I2C_EV_IRQHandler+0x510>
 8002aa2:	f894 203d 	ldrb.w	r2, [r4, #61]	@ 0x3d
 8002aa6:	2a22      	cmp	r2, #34	@ 0x22
 8002aa8:	f47f ae12 	bne.w	80026d0 <HAL_I2C_EV_IRQHandler+0x38>
 8002aac:	6ae0      	ldr	r0, [r4, #44]	@ 0x2c
 8002aae:	8d62      	ldrh	r2, [r4, #42]	@ 0x2a
 8002ab0:	b292      	uxth	r2, r2
 8002ab2:	2a03      	cmp	r2, #3
 8002ab4:	d914      	bls.n	8002ae0 <HAL_I2C_EV_IRQHandler+0x448>
 8002ab6:	691a      	ldr	r2, [r3, #16]
 8002ab8:	6a63      	ldr	r3, [r4, #36]	@ 0x24
 8002aba:	701a      	strb	r2, [r3, #0]
 8002abc:	6a63      	ldr	r3, [r4, #36]	@ 0x24
 8002abe:	3301      	adds	r3, #1
 8002ac0:	6263      	str	r3, [r4, #36]	@ 0x24
 8002ac2:	8d63      	ldrh	r3, [r4, #42]	@ 0x2a
 8002ac4:	3b01      	subs	r3, #1
 8002ac6:	b29b      	uxth	r3, r3
 8002ac8:	8563      	strh	r3, [r4, #42]	@ 0x2a
 8002aca:	8d63      	ldrh	r3, [r4, #42]	@ 0x2a
 8002acc:	b29b      	uxth	r3, r3
 8002ace:	2b03      	cmp	r3, #3
 8002ad0:	f47f adfe 	bne.w	80026d0 <HAL_I2C_EV_IRQHandler+0x38>
 8002ad4:	6822      	ldr	r2, [r4, #0]
 8002ad6:	6853      	ldr	r3, [r2, #4]
 8002ad8:	f423 6380 	bic.w	r3, r3, #1024	@ 0x400
 8002adc:	6053      	str	r3, [r2, #4]
 8002ade:	e5f7      	b.n	80026d0 <HAL_I2C_EV_IRQHandler+0x38>
 8002ae0:	6ae5      	ldr	r5, [r4, #44]	@ 0x2c
 8002ae2:	2d02      	cmp	r5, #2
 8002ae4:	f43f af73 	beq.w	80029ce <HAL_I2C_EV_IRQHandler+0x336>
 8002ae8:	2a01      	cmp	r2, #1
 8002aea:	f63f af70 	bhi.w	80029ce <HAL_I2C_EV_IRQHandler+0x336>
 8002aee:	4a7a      	ldr	r2, [pc, #488]	@ (8002cd8 <HAL_I2C_EV_IRQHandler+0x640>)
 8002af0:	910b      	str	r1, [sp, #44]	@ 0x2c
 8002af2:	6812      	ldr	r2, [r2, #0]
 8002af4:	f246 11a8 	movw	r1, #25000	@ 0x61a8
 8002af8:	fbb2 f2f1 	udiv	r2, r2, r1
 8002afc:	eb02 0282 	add.w	r2, r2, r2, lsl #2
 8002b00:	920b      	str	r2, [sp, #44]	@ 0x2c
 8002b02:	9a0b      	ldr	r2, [sp, #44]	@ 0x2c
 8002b04:	3a01      	subs	r2, #1
 8002b06:	920b      	str	r2, [sp, #44]	@ 0x2c
 8002b08:	990b      	ldr	r1, [sp, #44]	@ 0x2c
 8002b0a:	b9d1      	cbnz	r1, 8002b42 <HAL_I2C_EV_IRQHandler+0x4aa>
 8002b0c:	6c22      	ldr	r2, [r4, #64]	@ 0x40
 8002b0e:	f042 0220 	orr.w	r2, r2, #32
 8002b12:	6422      	str	r2, [r4, #64]	@ 0x40
 8002b14:	685a      	ldr	r2, [r3, #4]
 8002b16:	f422 62e0 	bic.w	r2, r2, #1792	@ 0x700
 8002b1a:	605a      	str	r2, [r3, #4]
 8002b1c:	691a      	ldr	r2, [r3, #16]
 8002b1e:	6a63      	ldr	r3, [r4, #36]	@ 0x24
 8002b20:	701a      	strb	r2, [r3, #0]
 8002b22:	6a63      	ldr	r3, [r4, #36]	@ 0x24
 8002b24:	3301      	adds	r3, #1
 8002b26:	6263      	str	r3, [r4, #36]	@ 0x24
 8002b28:	8d63      	ldrh	r3, [r4, #42]	@ 0x2a
 8002b2a:	3b01      	subs	r3, #1
 8002b2c:	b29b      	uxth	r3, r3
 8002b2e:	8563      	strh	r3, [r4, #42]	@ 0x2a
 8002b30:	2320      	movs	r3, #32
 8002b32:	f884 303d 	strb.w	r3, [r4, #61]	@ 0x3d
 8002b36:	4620      	mov	r0, r4
 8002b38:	f884 103e 	strb.w	r1, [r4, #62]	@ 0x3e
 8002b3c:	f7ff fca2 	bl	8002484 <HAL_I2C_ErrorCallback>
 8002b40:	e5c6      	b.n	80026d0 <HAL_I2C_EV_IRQHandler+0x38>
 8002b42:	681a      	ldr	r2, [r3, #0]
 8002b44:	f412 7200 	ands.w	r2, r2, #512	@ 0x200
 8002b48:	d1db      	bne.n	8002b02 <HAL_I2C_EV_IRQHandler+0x46a>
 8002b4a:	6819      	ldr	r1, [r3, #0]
 8002b4c:	f421 6180 	bic.w	r1, r1, #1024	@ 0x400
 8002b50:	6019      	str	r1, [r3, #0]
 8002b52:	6859      	ldr	r1, [r3, #4]
 8002b54:	f421 61e0 	bic.w	r1, r1, #1792	@ 0x700
 8002b58:	6059      	str	r1, [r3, #4]
 8002b5a:	6919      	ldr	r1, [r3, #16]
 8002b5c:	6a63      	ldr	r3, [r4, #36]	@ 0x24
 8002b5e:	7019      	strb	r1, [r3, #0]
 8002b60:	6a63      	ldr	r3, [r4, #36]	@ 0x24
 8002b62:	3301      	adds	r3, #1
 8002b64:	6263      	str	r3, [r4, #36]	@ 0x24
 8002b66:	8d63      	ldrh	r3, [r4, #42]	@ 0x2a
 8002b68:	3b01      	subs	r3, #1
 8002b6a:	b29b      	uxth	r3, r3
 8002b6c:	8563      	strh	r3, [r4, #42]	@ 0x2a
 8002b6e:	2320      	movs	r3, #32
 8002b70:	f884 303d 	strb.w	r3, [r4, #61]	@ 0x3d
 8002b74:	f894 303e 	ldrb.w	r3, [r4, #62]	@ 0x3e
 8002b78:	f884 203e 	strb.w	r2, [r4, #62]	@ 0x3e
 8002b7c:	2b40      	cmp	r3, #64	@ 0x40
 8002b7e:	d104      	bne.n	8002b8a <HAL_I2C_EV_IRQHandler+0x4f2>
 8002b80:	6322      	str	r2, [r4, #48]	@ 0x30
 8002b82:	4620      	mov	r0, r4
 8002b84:	f7ff fc7d 	bl	8002482 <HAL_I2C_MemRxCpltCallback>
 8002b88:	e5a2      	b.n	80026d0 <HAL_I2C_EV_IRQHandler+0x38>
 8002b8a:	2808      	cmp	r0, #8
 8002b8c:	d001      	beq.n	8002b92 <HAL_I2C_EV_IRQHandler+0x4fa>
 8002b8e:	2820      	cmp	r0, #32
 8002b90:	d101      	bne.n	8002b96 <HAL_I2C_EV_IRQHandler+0x4fe>
 8002b92:	2300      	movs	r3, #0
 8002b94:	e000      	b.n	8002b98 <HAL_I2C_EV_IRQHandler+0x500>
 8002b96:	2312      	movs	r3, #18
 8002b98:	6323      	str	r3, [r4, #48]	@ 0x30
 8002b9a:	4620      	mov	r0, r4
 8002b9c:	f7ff fc13 	bl	80023c6 <HAL_I2C_MasterRxCpltCallback>
 8002ba0:	e596      	b.n	80026d0 <HAL_I2C_EV_IRQHandler+0x38>
 8002ba2:	2900      	cmp	r1, #0
 8002ba4:	f43f ad94 	beq.w	80026d0 <HAL_I2C_EV_IRQHandler+0x38>
 8002ba8:	0592      	lsls	r2, r2, #22
 8002baa:	f57f ad91 	bpl.w	80026d0 <HAL_I2C_EV_IRQHandler+0x38>
 8002bae:	6ae2      	ldr	r2, [r4, #44]	@ 0x2c
 8002bb0:	8d60      	ldrh	r0, [r4, #42]	@ 0x2a
 8002bb2:	6a61      	ldr	r1, [r4, #36]	@ 0x24
 8002bb4:	b280      	uxth	r0, r0
 8002bb6:	2804      	cmp	r0, #4
 8002bb8:	d109      	bne.n	8002bce <HAL_I2C_EV_IRQHandler+0x536>
 8002bba:	685a      	ldr	r2, [r3, #4]
 8002bbc:	f422 6280 	bic.w	r2, r2, #1024	@ 0x400
 8002bc0:	605a      	str	r2, [r3, #4]
 8002bc2:	691b      	ldr	r3, [r3, #16]
 8002bc4:	700b      	strb	r3, [r1, #0]
 8002bc6:	6a63      	ldr	r3, [r4, #36]	@ 0x24
 8002bc8:	3301      	adds	r3, #1
 8002bca:	6263      	str	r3, [r4, #36]	@ 0x24
 8002bcc:	e723      	b.n	8002a16 <HAL_I2C_EV_IRQHandler+0x37e>
 8002bce:	8d60      	ldrh	r0, [r4, #42]	@ 0x2a
 8002bd0:	b280      	uxth	r0, r0
 8002bd2:	2803      	cmp	r0, #3
 8002bd4:	d10c      	bne.n	8002bf0 <HAL_I2C_EV_IRQHandler+0x558>
 8002bd6:	6858      	ldr	r0, [r3, #4]
 8002bd8:	2a04      	cmp	r2, #4
 8002bda:	f420 6080 	bic.w	r0, r0, #1024	@ 0x400
 8002bde:	6058      	str	r0, [r3, #4]
 8002be0:	d0ef      	beq.n	8002bc2 <HAL_I2C_EV_IRQHandler+0x52a>
 8002be2:	2a02      	cmp	r2, #2
 8002be4:	d0ed      	beq.n	8002bc2 <HAL_I2C_EV_IRQHandler+0x52a>
 8002be6:	681a      	ldr	r2, [r3, #0]
 8002be8:	f422 6280 	bic.w	r2, r2, #1024	@ 0x400
 8002bec:	601a      	str	r2, [r3, #0]
 8002bee:	e7e8      	b.n	8002bc2 <HAL_I2C_EV_IRQHandler+0x52a>
 8002bf0:	8d60      	ldrh	r0, [r4, #42]	@ 0x2a
 8002bf2:	b280      	uxth	r0, r0
 8002bf4:	2802      	cmp	r0, #2
 8002bf6:	d1e4      	bne.n	8002bc2 <HAL_I2C_EV_IRQHandler+0x52a>
 8002bf8:	2a04      	cmp	r2, #4
 8002bfa:	d033      	beq.n	8002c64 <HAL_I2C_EV_IRQHandler+0x5cc>
 8002bfc:	d807      	bhi.n	8002c0e <HAL_I2C_EV_IRQHandler+0x576>
 8002bfe:	2a01      	cmp	r2, #1
 8002c00:	d007      	beq.n	8002c12 <HAL_I2C_EV_IRQHandler+0x57a>
 8002c02:	2a02      	cmp	r2, #2
 8002c04:	d02e      	beq.n	8002c64 <HAL_I2C_EV_IRQHandler+0x5cc>
 8002c06:	6818      	ldr	r0, [r3, #0]
 8002c08:	f440 7000 	orr.w	r0, r0, #512	@ 0x200
 8002c0c:	e004      	b.n	8002c18 <HAL_I2C_EV_IRQHandler+0x580>
 8002c0e:	2a10      	cmp	r2, #16
 8002c10:	d1f9      	bne.n	8002c06 <HAL_I2C_EV_IRQHandler+0x56e>
 8002c12:	6818      	ldr	r0, [r3, #0]
 8002c14:	f420 6080 	bic.w	r0, r0, #1024	@ 0x400
 8002c18:	6018      	str	r0, [r3, #0]
 8002c1a:	691b      	ldr	r3, [r3, #16]
 8002c1c:	700b      	strb	r3, [r1, #0]
 8002c1e:	6a61      	ldr	r1, [r4, #36]	@ 0x24
 8002c20:	1c4b      	adds	r3, r1, #1
 8002c22:	6263      	str	r3, [r4, #36]	@ 0x24
 8002c24:	8d63      	ldrh	r3, [r4, #42]	@ 0x2a
 8002c26:	3b01      	subs	r3, #1
 8002c28:	b29b      	uxth	r3, r3
 8002c2a:	8563      	strh	r3, [r4, #42]	@ 0x2a
 8002c2c:	6823      	ldr	r3, [r4, #0]
 8002c2e:	691b      	ldr	r3, [r3, #16]
 8002c30:	704b      	strb	r3, [r1, #1]
 8002c32:	6a63      	ldr	r3, [r4, #36]	@ 0x24
 8002c34:	6821      	ldr	r1, [r4, #0]
 8002c36:	3301      	adds	r3, #1
 8002c38:	6263      	str	r3, [r4, #36]	@ 0x24
 8002c3a:	8d63      	ldrh	r3, [r4, #42]	@ 0x2a
 8002c3c:	3b01      	subs	r3, #1
 8002c3e:	b29b      	uxth	r3, r3
 8002c40:	8563      	strh	r3, [r4, #42]	@ 0x2a
 8002c42:	684b      	ldr	r3, [r1, #4]
 8002c44:	f423 7340 	bic.w	r3, r3, #768	@ 0x300
 8002c48:	604b      	str	r3, [r1, #4]
 8002c4a:	2320      	movs	r3, #32
 8002c4c:	f884 303d 	strb.w	r3, [r4, #61]	@ 0x3d
 8002c50:	f894 303e 	ldrb.w	r3, [r4, #62]	@ 0x3e
 8002c54:	2b40      	cmp	r3, #64	@ 0x40
 8002c56:	f04f 0300 	mov.w	r3, #0
 8002c5a:	f884 303e 	strb.w	r3, [r4, #62]	@ 0x3e
 8002c5e:	d105      	bne.n	8002c6c <HAL_I2C_EV_IRQHandler+0x5d4>
 8002c60:	6323      	str	r3, [r4, #48]	@ 0x30
 8002c62:	e78e      	b.n	8002b82 <HAL_I2C_EV_IRQHandler+0x4ea>
 8002c64:	6818      	ldr	r0, [r3, #0]
 8002c66:	f440 6080 	orr.w	r0, r0, #1024	@ 0x400
 8002c6a:	e7d5      	b.n	8002c18 <HAL_I2C_EV_IRQHandler+0x580>
 8002c6c:	2a08      	cmp	r2, #8
 8002c6e:	d090      	beq.n	8002b92 <HAL_I2C_EV_IRQHandler+0x4fa>
 8002c70:	2a20      	cmp	r2, #32
 8002c72:	e78d      	b.n	8002b90 <HAL_I2C_EV_IRQHandler+0x4f8>
 8002c74:	6c20      	ldr	r0, [r4, #64]	@ 0x40
 8002c76:	b310      	cbz	r0, 8002cbe <HAL_I2C_EV_IRQHandler+0x626>
 8002c78:	6958      	ldr	r0, [r3, #20]
 8002c7a:	2500      	movs	r5, #0
 8002c7c:	0787      	lsls	r7, r0, #30
 8002c7e:	d52d      	bpl.n	8002cdc <HAL_I2C_EV_IRQHandler+0x644>
 8002c80:	0596      	lsls	r6, r2, #22
 8002c82:	d52b      	bpl.n	8002cdc <HAL_I2C_EV_IRQHandler+0x644>
 8002c84:	6c22      	ldr	r2, [r4, #64]	@ 0x40
 8002c86:	b102      	cbz	r2, 8002c8a <HAL_I2C_EV_IRQHandler+0x5f2>
 8002c88:	699d      	ldr	r5, [r3, #24]
 8002c8a:	f894 203d 	ldrb.w	r2, [r4, #61]	@ 0x3d
 8002c8e:	f002 0228 	and.w	r2, r2, #40	@ 0x28
 8002c92:	2a28      	cmp	r2, #40	@ 0x28
 8002c94:	d116      	bne.n	8002cc4 <HAL_I2C_EV_IRQHandler+0x62c>
 8002c96:	685a      	ldr	r2, [r3, #4]
 8002c98:	f422 6280 	bic.w	r2, r2, #1024	@ 0x400
 8002c9c:	605a      	str	r2, [r3, #4]
 8002c9e:	062f      	lsls	r7, r5, #24
 8002ca0:	f085 0104 	eor.w	r1, r5, #4
 8002ca4:	f04f 0300 	mov.w	r3, #0
 8002ca8:	bf54      	ite	pl
 8002caa:	89a2      	ldrhpl	r2, [r4, #12]
 8002cac:	8b22      	ldrhmi	r2, [r4, #24]
 8002cae:	f884 303c 	strb.w	r3, [r4, #60]	@ 0x3c
 8002cb2:	f3c1 0180 	ubfx	r1, r1, #2, #1
 8002cb6:	4620      	mov	r0, r4
 8002cb8:	f7ff fb88 	bl	80023cc <HAL_I2C_AddrCallback>
 8002cbc:	e508      	b.n	80026d0 <HAL_I2C_EV_IRQHandler+0x38>
 8002cbe:	699d      	ldr	r5, [r3, #24]
 8002cc0:	6958      	ldr	r0, [r3, #20]
 8002cc2:	e7db      	b.n	8002c7c <HAL_I2C_EV_IRQHandler+0x5e4>
 8002cc4:	2200      	movs	r2, #0
 8002cc6:	920c      	str	r2, [sp, #48]	@ 0x30
 8002cc8:	6959      	ldr	r1, [r3, #20]
 8002cca:	910c      	str	r1, [sp, #48]	@ 0x30
 8002ccc:	699b      	ldr	r3, [r3, #24]
 8002cce:	930c      	str	r3, [sp, #48]	@ 0x30
 8002cd0:	9b0c      	ldr	r3, [sp, #48]	@ 0x30
 8002cd2:	f884 203c 	strb.w	r2, [r4, #60]	@ 0x3c
 8002cd6:	e4fb      	b.n	80026d0 <HAL_I2C_EV_IRQHandler+0x38>
 8002cd8:	20000000 	.word	0x20000000
 8002cdc:	06c6      	lsls	r6, r0, #27
 8002cde:	f140 80b1 	bpl.w	8002e44 <HAL_I2C_EV_IRQHandler+0x7ac>
 8002ce2:	0595      	lsls	r5, r2, #22
 8002ce4:	f140 80ae 	bpl.w	8002e44 <HAL_I2C_EV_IRQHandler+0x7ac>
 8002ce8:	f894 503d 	ldrb.w	r5, [r4, #61]	@ 0x3d
 8002cec:	685a      	ldr	r2, [r3, #4]
 8002cee:	f422 62e0 	bic.w	r2, r2, #1792	@ 0x700
 8002cf2:	605a      	str	r2, [r3, #4]
 8002cf4:	2200      	movs	r2, #0
 8002cf6:	920d      	str	r2, [sp, #52]	@ 0x34
 8002cf8:	695a      	ldr	r2, [r3, #20]
 8002cfa:	920d      	str	r2, [sp, #52]	@ 0x34
 8002cfc:	681a      	ldr	r2, [r3, #0]
 8002cfe:	f042 0201 	orr.w	r2, r2, #1
 8002d02:	601a      	str	r2, [r3, #0]
 8002d04:	9a0d      	ldr	r2, [sp, #52]	@ 0x34
 8002d06:	681a      	ldr	r2, [r3, #0]
 8002d08:	f422 6280 	bic.w	r2, r2, #1024	@ 0x400
 8002d0c:	601a      	str	r2, [r3, #0]
 8002d0e:	685a      	ldr	r2, [r3, #4]
 8002d10:	0510      	lsls	r0, r2, #20
 8002d12:	b2ed      	uxtb	r5, r5
 8002d14:	d520      	bpl.n	8002d58 <HAL_I2C_EV_IRQHandler+0x6c0>
 8002d16:	f005 02f7 	and.w	r2, r5, #247	@ 0xf7
 8002d1a:	2a22      	cmp	r2, #34	@ 0x22
 8002d1c:	d14a      	bne.n	8002db4 <HAL_I2C_EV_IRQHandler+0x71c>
 8002d1e:	6ba0      	ldr	r0, [r4, #56]	@ 0x38
 8002d20:	6802      	ldr	r2, [r0, #0]
 8002d22:	6852      	ldr	r2, [r2, #4]
 8002d24:	b292      	uxth	r2, r2
 8002d26:	8562      	strh	r2, [r4, #42]	@ 0x2a
 8002d28:	8d62      	ldrh	r2, [r4, #42]	@ 0x2a
 8002d2a:	b292      	uxth	r2, r2
 8002d2c:	b11a      	cbz	r2, 8002d36 <HAL_I2C_EV_IRQHandler+0x69e>
 8002d2e:	6c22      	ldr	r2, [r4, #64]	@ 0x40
 8002d30:	f042 0204 	orr.w	r2, r2, #4
 8002d34:	6422      	str	r2, [r4, #64]	@ 0x40
 8002d36:	685a      	ldr	r2, [r3, #4]
 8002d38:	f422 6200 	bic.w	r2, r2, #2048	@ 0x800
 8002d3c:	605a      	str	r2, [r3, #4]
 8002d3e:	f7fe fff3 	bl	8001d28 <HAL_DMA_GetState>
 8002d42:	2801      	cmp	r0, #1
 8002d44:	d008      	beq.n	8002d58 <HAL_I2C_EV_IRQHandler+0x6c0>
 8002d46:	6ba0      	ldr	r0, [r4, #56]	@ 0x38
 8002d48:	4b79      	ldr	r3, [pc, #484]	@ (8002f30 <HAL_I2C_EV_IRQHandler+0x898>)
 8002d4a:	6503      	str	r3, [r0, #80]	@ 0x50
 8002d4c:	f7fe ff1b 	bl	8001b86 <HAL_DMA_Abort_IT>
 8002d50:	b110      	cbz	r0, 8002d58 <HAL_I2C_EV_IRQHandler+0x6c0>
 8002d52:	6ba0      	ldr	r0, [r4, #56]	@ 0x38
 8002d54:	6d03      	ldr	r3, [r0, #80]	@ 0x50
 8002d56:	4798      	blx	r3
 8002d58:	8d63      	ldrh	r3, [r4, #42]	@ 0x2a
 8002d5a:	b29b      	uxth	r3, r3
 8002d5c:	b313      	cbz	r3, 8002da4 <HAL_I2C_EV_IRQHandler+0x70c>
 8002d5e:	6823      	ldr	r3, [r4, #0]
 8002d60:	695a      	ldr	r2, [r3, #20]
 8002d62:	0751      	lsls	r1, r2, #29
 8002d64:	d509      	bpl.n	8002d7a <HAL_I2C_EV_IRQHandler+0x6e2>
 8002d66:	691a      	ldr	r2, [r3, #16]
 8002d68:	6a63      	ldr	r3, [r4, #36]	@ 0x24
 8002d6a:	701a      	strb	r2, [r3, #0]
 8002d6c:	6a63      	ldr	r3, [r4, #36]	@ 0x24
 8002d6e:	3301      	adds	r3, #1
 8002d70:	6263      	str	r3, [r4, #36]	@ 0x24
 8002d72:	8d63      	ldrh	r3, [r4, #42]	@ 0x2a
 8002d74:	3b01      	subs	r3, #1
 8002d76:	b29b      	uxth	r3, r3
 8002d78:	8563      	strh	r3, [r4, #42]	@ 0x2a
 8002d7a:	6823      	ldr	r3, [r4, #0]
 8002d7c:	695a      	ldr	r2, [r3, #20]
 8002d7e:	0652      	lsls	r2, r2, #25
 8002d80:	d509      	bpl.n	8002d96 <HAL_I2C_EV_IRQHandler+0x6fe>
 8002d82:	691a      	ldr	r2, [r3, #16]
 8002d84:	6a63      	ldr	r3, [r4, #36]	@ 0x24
 8002d86:	701a      	strb	r2, [r3, #0]
 8002d88:	6a63      	ldr	r3, [r4, #36]	@ 0x24
 8002d8a:	3301      	adds	r3, #1
 8002d8c:	6263      	str	r3, [r4, #36]	@ 0x24
 8002d8e:	8d63      	ldrh	r3, [r4, #42]	@ 0x2a
 8002d90:	3b01      	subs	r3, #1
 8002d92:	b29b      	uxth	r3, r3
 8002d94:	8563      	strh	r3, [r4, #42]	@ 0x2a
 8002d96:	8d63      	ldrh	r3, [r4, #42]	@ 0x2a
 8002d98:	b29b      	uxth	r3, r3
 8002d9a:	b11b      	cbz	r3, 8002da4 <HAL_I2C_EV_IRQHandler+0x70c>
 8002d9c:	6c23      	ldr	r3, [r4, #64]	@ 0x40
 8002d9e:	f043 0304 	orr.w	r3, r3, #4
 8002da2:	6423      	str	r3, [r4, #64]	@ 0x40
 8002da4:	6c23      	ldr	r3, [r4, #64]	@ 0x40
 8002da6:	b313      	cbz	r3, 8002dee <HAL_I2C_EV_IRQHandler+0x756>
 8002da8:	4620      	mov	r0, r4
 8002daa:	b00f      	add	sp, #60	@ 0x3c
 8002dac:	e8bd 40f0 	ldmia.w	sp!, {r4, r5, r6, r7, lr}
 8002db0:	f7ff bbca 	b.w	8002548 <I2C_ITError>
 8002db4:	6b60      	ldr	r0, [r4, #52]	@ 0x34
 8002db6:	6802      	ldr	r2, [r0, #0]
 8002db8:	6852      	ldr	r2, [r2, #4]
 8002dba:	b292      	uxth	r2, r2
 8002dbc:	8562      	strh	r2, [r4, #42]	@ 0x2a
 8002dbe:	8d62      	ldrh	r2, [r4, #42]	@ 0x2a
 8002dc0:	b292      	uxth	r2, r2
 8002dc2:	b11a      	cbz	r2, 8002dcc <HAL_I2C_EV_IRQHandler+0x734>
 8002dc4:	6c22      	ldr	r2, [r4, #64]	@ 0x40
 8002dc6:	f042 0204 	orr.w	r2, r2, #4
 8002dca:	6422      	str	r2, [r4, #64]	@ 0x40
 8002dcc:	685a      	ldr	r2, [r3, #4]
 8002dce:	f422 6200 	bic.w	r2, r2, #2048	@ 0x800
 8002dd2:	605a      	str	r2, [r3, #4]
 8002dd4:	f7fe ffa8 	bl	8001d28 <HAL_DMA_GetState>
 8002dd8:	2801      	cmp	r0, #1
 8002dda:	d0bd      	beq.n	8002d58 <HAL_I2C_EV_IRQHandler+0x6c0>
 8002ddc:	6b60      	ldr	r0, [r4, #52]	@ 0x34
 8002dde:	4b54      	ldr	r3, [pc, #336]	@ (8002f30 <HAL_I2C_EV_IRQHandler+0x898>)
 8002de0:	6503      	str	r3, [r0, #80]	@ 0x50
 8002de2:	f7fe fed0 	bl	8001b86 <HAL_DMA_Abort_IT>
 8002de6:	2800      	cmp	r0, #0
 8002de8:	d0b6      	beq.n	8002d58 <HAL_I2C_EV_IRQHandler+0x6c0>
 8002dea:	6b60      	ldr	r0, [r4, #52]	@ 0x34
 8002dec:	e7b2      	b.n	8002d54 <HAL_I2C_EV_IRQHandler+0x6bc>
 8002dee:	2d2a      	cmp	r5, #42	@ 0x2a
 8002df0:	d106      	bne.n	8002e00 <HAL_I2C_EV_IRQHandler+0x768>
 8002df2:	6323      	str	r3, [r4, #48]	@ 0x30
 8002df4:	2328      	movs	r3, #40	@ 0x28
 8002df6:	f884 303d 	strb.w	r3, [r4, #61]	@ 0x3d
 8002dfa:	4620      	mov	r0, r4
 8002dfc:	f7ff fae5 	bl	80023ca <HAL_I2C_SlaveRxCpltCallback>
 8002e00:	f894 303d 	ldrb.w	r3, [r4, #61]	@ 0x3d
 8002e04:	2b28      	cmp	r3, #40	@ 0x28
 8002e06:	d10c      	bne.n	8002e22 <HAL_I2C_EV_IRQHandler+0x78a>
 8002e08:	4b4a      	ldr	r3, [pc, #296]	@ (8002f34 <HAL_I2C_EV_IRQHandler+0x89c>)
 8002e0a:	62e3      	str	r3, [r4, #44]	@ 0x2c
 8002e0c:	2220      	movs	r2, #32
 8002e0e:	2300      	movs	r3, #0
 8002e10:	6323      	str	r3, [r4, #48]	@ 0x30
 8002e12:	4620      	mov	r0, r4
 8002e14:	f884 203d 	strb.w	r2, [r4, #61]	@ 0x3d
 8002e18:	f884 303e 	strb.w	r3, [r4, #62]	@ 0x3e
 8002e1c:	f7ff fad7 	bl	80023ce <HAL_I2C_ListenCpltCallback>
 8002e20:	e456      	b.n	80026d0 <HAL_I2C_EV_IRQHandler+0x38>
 8002e22:	6b23      	ldr	r3, [r4, #48]	@ 0x30
 8002e24:	2b22      	cmp	r3, #34	@ 0x22
 8002e26:	d002      	beq.n	8002e2e <HAL_I2C_EV_IRQHandler+0x796>
 8002e28:	2d22      	cmp	r5, #34	@ 0x22
 8002e2a:	f47f ac51 	bne.w	80026d0 <HAL_I2C_EV_IRQHandler+0x38>
 8002e2e:	2300      	movs	r3, #0
 8002e30:	2220      	movs	r2, #32
 8002e32:	6323      	str	r3, [r4, #48]	@ 0x30
 8002e34:	f884 203d 	strb.w	r2, [r4, #61]	@ 0x3d
 8002e38:	f884 303e 	strb.w	r3, [r4, #62]	@ 0x3e
 8002e3c:	4620      	mov	r0, r4
 8002e3e:	f7ff fac4 	bl	80023ca <HAL_I2C_SlaveRxCpltCallback>
 8002e42:	e445      	b.n	80026d0 <HAL_I2C_EV_IRQHandler+0x38>
 8002e44:	f001 01f7 	and.w	r1, r1, #247	@ 0xf7
 8002e48:	2921      	cmp	r1, #33	@ 0x21
 8002e4a:	f000 0504 	and.w	r5, r0, #4
 8002e4e:	d135      	bne.n	8002ebc <HAL_I2C_EV_IRQHandler+0x824>
 8002e50:	0607      	lsls	r7, r0, #24
 8002e52:	d527      	bpl.n	8002ea4 <HAL_I2C_EV_IRQHandler+0x80c>
 8002e54:	0556      	lsls	r6, r2, #21
 8002e56:	d525      	bpl.n	8002ea4 <HAL_I2C_EV_IRQHandler+0x80c>
 8002e58:	bb3d      	cbnz	r5, 8002eaa <HAL_I2C_EV_IRQHandler+0x812>
 8002e5a:	f894 003d 	ldrb.w	r0, [r4, #61]	@ 0x3d
 8002e5e:	8d62      	ldrh	r2, [r4, #42]	@ 0x2a
 8002e60:	b292      	uxth	r2, r2
 8002e62:	b2c0      	uxtb	r0, r0
 8002e64:	2a00      	cmp	r2, #0
 8002e66:	f43f ac33 	beq.w	80026d0 <HAL_I2C_EV_IRQHandler+0x38>
 8002e6a:	6a62      	ldr	r2, [r4, #36]	@ 0x24
 8002e6c:	f812 5b01 	ldrb.w	r5, [r2], #1
 8002e70:	611d      	str	r5, [r3, #16]
 8002e72:	6262      	str	r2, [r4, #36]	@ 0x24
 8002e74:	8d62      	ldrh	r2, [r4, #42]	@ 0x2a
 8002e76:	3a01      	subs	r2, #1
 8002e78:	b292      	uxth	r2, r2
 8002e7a:	8562      	strh	r2, [r4, #42]	@ 0x2a
 8002e7c:	8d62      	ldrh	r2, [r4, #42]	@ 0x2a
 8002e7e:	b292      	uxth	r2, r2
 8002e80:	2a00      	cmp	r2, #0
 8002e82:	f47f ac25 	bne.w	80026d0 <HAL_I2C_EV_IRQHandler+0x38>
 8002e86:	2829      	cmp	r0, #41	@ 0x29
 8002e88:	f47f ac22 	bne.w	80026d0 <HAL_I2C_EV_IRQHandler+0x38>
 8002e8c:	685a      	ldr	r2, [r3, #4]
 8002e8e:	f422 6280 	bic.w	r2, r2, #1024	@ 0x400
 8002e92:	605a      	str	r2, [r3, #4]
 8002e94:	2328      	movs	r3, #40	@ 0x28
 8002e96:	6321      	str	r1, [r4, #48]	@ 0x30
 8002e98:	4620      	mov	r0, r4
 8002e9a:	f884 303d 	strb.w	r3, [r4, #61]	@ 0x3d
 8002e9e:	f7ff fa93 	bl	80023c8 <HAL_I2C_SlaveTxCpltCallback>
 8002ea2:	e415      	b.n	80026d0 <HAL_I2C_EV_IRQHandler+0x38>
 8002ea4:	2d00      	cmp	r5, #0
 8002ea6:	f43f ac13 	beq.w	80026d0 <HAL_I2C_EV_IRQHandler+0x38>
 8002eaa:	0595      	lsls	r5, r2, #22
 8002eac:	f57f ac10 	bpl.w	80026d0 <HAL_I2C_EV_IRQHandler+0x38>
 8002eb0:	8d62      	ldrh	r2, [r4, #42]	@ 0x2a
 8002eb2:	b292      	uxth	r2, r2
 8002eb4:	2a00      	cmp	r2, #0
 8002eb6:	f43f ac0b 	beq.w	80026d0 <HAL_I2C_EV_IRQHandler+0x38>
 8002eba:	e5a7      	b.n	8002a0c <HAL_I2C_EV_IRQHandler+0x374>
 8002ebc:	0640      	lsls	r0, r0, #25
 8002ebe:	d527      	bpl.n	8002f10 <HAL_I2C_EV_IRQHandler+0x878>
 8002ec0:	0551      	lsls	r1, r2, #21
 8002ec2:	d525      	bpl.n	8002f10 <HAL_I2C_EV_IRQHandler+0x878>
 8002ec4:	bb3d      	cbnz	r5, 8002f16 <HAL_I2C_EV_IRQHandler+0x87e>
 8002ec6:	f894 203d 	ldrb.w	r2, [r4, #61]	@ 0x3d
 8002eca:	8d61      	ldrh	r1, [r4, #42]	@ 0x2a
 8002ecc:	b289      	uxth	r1, r1
 8002ece:	b2d2      	uxtb	r2, r2
 8002ed0:	2900      	cmp	r1, #0
 8002ed2:	f43f abfd 	beq.w	80026d0 <HAL_I2C_EV_IRQHandler+0x38>
 8002ed6:	6919      	ldr	r1, [r3, #16]
 8002ed8:	6a63      	ldr	r3, [r4, #36]	@ 0x24
 8002eda:	7019      	strb	r1, [r3, #0]
 8002edc:	6a63      	ldr	r3, [r4, #36]	@ 0x24
 8002ede:	3301      	adds	r3, #1
 8002ee0:	6263      	str	r3, [r4, #36]	@ 0x24
 8002ee2:	8d63      	ldrh	r3, [r4, #42]	@ 0x2a
 8002ee4:	3b01      	subs	r3, #1
 8002ee6:	b29b      	uxth	r3, r3
 8002ee8:	8563      	strh	r3, [r4, #42]	@ 0x2a
 8002eea:	8d63      	ldrh	r3, [r4, #42]	@ 0x2a
 8002eec:	b29b      	uxth	r3, r3
 8002eee:	2b00      	cmp	r3, #0
 8002ef0:	f47f abee 	bne.w	80026d0 <HAL_I2C_EV_IRQHandler+0x38>
 8002ef4:	2a2a      	cmp	r2, #42	@ 0x2a
 8002ef6:	f47f abeb 	bne.w	80026d0 <HAL_I2C_EV_IRQHandler+0x38>
 8002efa:	6822      	ldr	r2, [r4, #0]
 8002efc:	6853      	ldr	r3, [r2, #4]
 8002efe:	f423 6380 	bic.w	r3, r3, #1024	@ 0x400
 8002f02:	6053      	str	r3, [r2, #4]
 8002f04:	2322      	movs	r3, #34	@ 0x22
 8002f06:	6323      	str	r3, [r4, #48]	@ 0x30
 8002f08:	2328      	movs	r3, #40	@ 0x28
 8002f0a:	f884 303d 	strb.w	r3, [r4, #61]	@ 0x3d
 8002f0e:	e795      	b.n	8002e3c <HAL_I2C_EV_IRQHandler+0x7a4>
 8002f10:	2d00      	cmp	r5, #0
 8002f12:	f43f abdd 	beq.w	80026d0 <HAL_I2C_EV_IRQHandler+0x38>
 8002f16:	0592      	lsls	r2, r2, #22
 8002f18:	f57f abda 	bpl.w	80026d0 <HAL_I2C_EV_IRQHandler+0x38>
 8002f1c:	8d62      	ldrh	r2, [r4, #42]	@ 0x2a
 8002f1e:	b292      	uxth	r2, r2
 8002f20:	2a00      	cmp	r2, #0
 8002f22:	f43f abd5 	beq.w	80026d0 <HAL_I2C_EV_IRQHandler+0x38>
 8002f26:	691a      	ldr	r2, [r3, #16]
 8002f28:	6a63      	ldr	r3, [r4, #36]	@ 0x24
 8002f2a:	701a      	strb	r2, [r3, #0]
 8002f2c:	e64b      	b.n	8002bc6 <HAL_I2C_EV_IRQHandler+0x52e>
 8002f2e:	bf00      	nop
 8002f30:	08002489 	.word	0x08002489
 8002f34:	ffff0000 	.word	0xffff0000

08002f38 <HAL_I2C_ER_IRQHandler>:
 8002f38:	b5f8      	push	{r3, r4, r5, r6, r7, lr}
 8002f3a:	6803      	ldr	r3, [r0, #0]
 8002f3c:	695f      	ldr	r7, [r3, #20]
 8002f3e:	685e      	ldr	r6, [r3, #4]
 8002f40:	f890 203e 	ldrb.w	r2, [r0, #62]	@ 0x3e
 8002f44:	f417 7580 	ands.w	r5, r7, #256	@ 0x100
 8002f48:	4604      	mov	r4, r0
 8002f4a:	b2d2      	uxtb	r2, r2
 8002f4c:	d006      	beq.n	8002f5c <HAL_I2C_ER_IRQHandler+0x24>
 8002f4e:	f416 7580 	ands.w	r5, r6, #256	@ 0x100
 8002f52:	bf1e      	ittt	ne
 8002f54:	f46f 7180 	mvnne.w	r1, #256	@ 0x100
 8002f58:	6159      	strne	r1, [r3, #20]
 8002f5a:	2501      	movne	r5, #1
 8002f5c:	05b8      	lsls	r0, r7, #22
 8002f5e:	d506      	bpl.n	8002f6e <HAL_I2C_ER_IRQHandler+0x36>
 8002f60:	05f1      	lsls	r1, r6, #23
 8002f62:	bf42      	ittt	mi
 8002f64:	f46f 7100 	mvnmi.w	r1, #512	@ 0x200
 8002f68:	f045 0502 	orrmi.w	r5, r5, #2
 8002f6c:	6159      	strmi	r1, [r3, #20]
 8002f6e:	0578      	lsls	r0, r7, #21
 8002f70:	d536      	bpl.n	8002fe0 <HAL_I2C_ER_IRQHandler+0xa8>
 8002f72:	05f1      	lsls	r1, r6, #23
 8002f74:	d534      	bpl.n	8002fe0 <HAL_I2C_ER_IRQHandler+0xa8>
 8002f76:	8d60      	ldrh	r0, [r4, #42]	@ 0x2a
 8002f78:	f894 103d 	ldrb.w	r1, [r4, #61]	@ 0x3d
 8002f7c:	f8d4 c030 	ldr.w	ip, [r4, #48]	@ 0x30
 8002f80:	2a20      	cmp	r2, #32
 8002f82:	b280      	uxth	r0, r0
 8002f84:	b2c9      	uxtb	r1, r1
 8002f86:	d15f      	bne.n	8003048 <HAL_I2C_ER_IRQHandler+0x110>
 8002f88:	2800      	cmp	r0, #0
 8002f8a:	d15d      	bne.n	8003048 <HAL_I2C_ER_IRQHandler+0x110>
 8002f8c:	f001 00f7 	and.w	r0, r1, #247	@ 0xf7
 8002f90:	2821      	cmp	r0, #33	@ 0x21
 8002f92:	d004      	beq.n	8002f9e <HAL_I2C_ER_IRQHandler+0x66>
 8002f94:	2928      	cmp	r1, #40	@ 0x28
 8002f96:	d157      	bne.n	8003048 <HAL_I2C_ER_IRQHandler+0x110>
 8002f98:	f1bc 0f21 	cmp.w	ip, #33	@ 0x21
 8002f9c:	d154      	bne.n	8003048 <HAL_I2C_ER_IRQHandler+0x110>
 8002f9e:	f894 203d 	ldrb.w	r2, [r4, #61]	@ 0x3d
 8002fa2:	6ae1      	ldr	r1, [r4, #44]	@ 0x2c
 8002fa4:	2908      	cmp	r1, #8
 8002fa6:	b2d2      	uxtb	r2, r2
 8002fa8:	d001      	beq.n	8002fae <HAL_I2C_ER_IRQHandler+0x76>
 8002faa:	2920      	cmp	r1, #32
 8002fac:	d12a      	bne.n	8003004 <HAL_I2C_ER_IRQHandler+0xcc>
 8002fae:	2a28      	cmp	r2, #40	@ 0x28
 8002fb0:	d128      	bne.n	8003004 <HAL_I2C_ER_IRQHandler+0xcc>
 8002fb2:	4a2e      	ldr	r2, [pc, #184]	@ (800306c <HAL_I2C_ER_IRQHandler+0x134>)
 8002fb4:	62e2      	str	r2, [r4, #44]	@ 0x2c
 8002fb6:	685a      	ldr	r2, [r3, #4]
 8002fb8:	f422 62e0 	bic.w	r2, r2, #1792	@ 0x700
 8002fbc:	605a      	str	r2, [r3, #4]
 8002fbe:	f46f 6280 	mvn.w	r2, #1024	@ 0x400
 8002fc2:	615a      	str	r2, [r3, #20]
 8002fc4:	681a      	ldr	r2, [r3, #0]
 8002fc6:	f422 6280 	bic.w	r2, r2, #1024	@ 0x400
 8002fca:	601a      	str	r2, [r3, #0]
 8002fcc:	2300      	movs	r3, #0
 8002fce:	2220      	movs	r2, #32
 8002fd0:	6323      	str	r3, [r4, #48]	@ 0x30
 8002fd2:	4620      	mov	r0, r4
 8002fd4:	f884 203d 	strb.w	r2, [r4, #61]	@ 0x3d
 8002fd8:	f884 303e 	strb.w	r3, [r4, #62]	@ 0x3e
 8002fdc:	f7ff f9f7 	bl	80023ce <HAL_I2C_ListenCpltCallback>
 8002fe0:	053a      	lsls	r2, r7, #20
 8002fe2:	d53f      	bpl.n	8003064 <HAL_I2C_ER_IRQHandler+0x12c>
 8002fe4:	05f3      	lsls	r3, r6, #23
 8002fe6:	d53d      	bpl.n	8003064 <HAL_I2C_ER_IRQHandler+0x12c>
 8002fe8:	6823      	ldr	r3, [r4, #0]
 8002fea:	f46f 6200 	mvn.w	r2, #2048	@ 0x800
 8002fee:	f045 0508 	orr.w	r5, r5, #8
 8002ff2:	615a      	str	r2, [r3, #20]
 8002ff4:	6c23      	ldr	r3, [r4, #64]	@ 0x40
 8002ff6:	432b      	orrs	r3, r5
 8002ff8:	6423      	str	r3, [r4, #64]	@ 0x40
 8002ffa:	4620      	mov	r0, r4
 8002ffc:	e8bd 40f8 	ldmia.w	sp!, {r3, r4, r5, r6, r7, lr}
 8003000:	f7ff baa2 	b.w	8002548 <I2C_ITError>
 8003004:	2a21      	cmp	r2, #33	@ 0x21
 8003006:	d11b      	bne.n	8003040 <HAL_I2C_ER_IRQHandler+0x108>
 8003008:	4918      	ldr	r1, [pc, #96]	@ (800306c <HAL_I2C_ER_IRQHandler+0x134>)
 800300a:	62e1      	str	r1, [r4, #44]	@ 0x2c
 800300c:	6322      	str	r2, [r4, #48]	@ 0x30
 800300e:	2100      	movs	r1, #0
 8003010:	2220      	movs	r2, #32
 8003012:	f884 203d 	strb.w	r2, [r4, #61]	@ 0x3d
 8003016:	f884 103e 	strb.w	r1, [r4, #62]	@ 0x3e
 800301a:	685a      	ldr	r2, [r3, #4]
 800301c:	f422 62e0 	bic.w	r2, r2, #1792	@ 0x700
 8003020:	605a      	str	r2, [r3, #4]
 8003022:	f46f 6280 	mvn.w	r2, #1024	@ 0x400
 8003026:	615a      	str	r2, [r3, #20]
 8003028:	681a      	ldr	r2, [r3, #0]
 800302a:	f422 6280 	bic.w	r2, r2, #1024	@ 0x400
 800302e:	601a      	str	r2, [r3, #0]
 8003030:	695a      	ldr	r2, [r3, #20]
 8003032:	0610      	lsls	r0, r2, #24
 8003034:	bf48      	it	mi
 8003036:	6119      	strmi	r1, [r3, #16]
 8003038:	4620      	mov	r0, r4
 800303a:	f7ff f9c5 	bl	80023c8 <HAL_I2C_SlaveTxCpltCallback>
 800303e:	e7cf      	b.n	8002fe0 <HAL_I2C_ER_IRQHandler+0xa8>
 8003040:	f46f 6280 	mvn.w	r2, #1024	@ 0x400
 8003044:	615a      	str	r2, [r3, #20]
 8003046:	e7cb      	b.n	8002fe0 <HAL_I2C_ER_IRQHandler+0xa8>
 8003048:	f46f 6180 	mvn.w	r1, #1024	@ 0x400
 800304c:	2a10      	cmp	r2, #16
 800304e:	6159      	str	r1, [r3, #20]
 8003050:	d001      	beq.n	8003056 <HAL_I2C_ER_IRQHandler+0x11e>
 8003052:	2a40      	cmp	r2, #64	@ 0x40
 8003054:	d103      	bne.n	800305e <HAL_I2C_ER_IRQHandler+0x126>
 8003056:	681a      	ldr	r2, [r3, #0]
 8003058:	f442 7200 	orr.w	r2, r2, #512	@ 0x200
 800305c:	601a      	str	r2, [r3, #0]
 800305e:	f045 0504 	orr.w	r5, r5, #4
 8003062:	e7bd      	b.n	8002fe0 <HAL_I2C_ER_IRQHandler+0xa8>
 8003064:	2d00      	cmp	r5, #0
 8003066:	d1c5      	bne.n	8002ff4 <HAL_I2C_ER_IRQHandler+0xbc>
 8003068:	bdf8      	pop	{r3, r4, r5, r6, r7, pc}
 800306a:	bf00      	nop
 800306c:	ffff0000 	.word	0xffff0000

08003070 <HAL_RCC_OscConfig>:
 8003070:	e92d 41f3 	stmdb	sp!, {r0, r1, r4, r5, r6, r7, r8, lr}
 8003074:	4604      	mov	r4, r0
 8003076:	b340      	cbz	r0, 80030ca <HAL_RCC_OscConfig+0x5a>
 8003078:	6803      	ldr	r3, [r0, #0]
 800307a:	07de      	lsls	r6, r3, #31
 800307c:	d410      	bmi.n	80030a0 <HAL_RCC_OscConfig+0x30>
 800307e:	6823      	ldr	r3, [r4, #0]
 8003080:	079d      	lsls	r5, r3, #30
 8003082:	d45b      	bmi.n	800313c <HAL_RCC_OscConfig+0xcc>
 8003084:	6823      	ldr	r3, [r4, #0]
 8003086:	0719      	lsls	r1, r3, #28
 8003088:	f100 809d 	bmi.w	80031c6 <HAL_RCC_OscConfig+0x156>
 800308c:	6823      	ldr	r3, [r4, #0]
 800308e:	075a      	lsls	r2, r3, #29
 8003090:	f100 80bd 	bmi.w	800320e <HAL_RCC_OscConfig+0x19e>
 8003094:	69a3      	ldr	r3, [r4, #24]
 8003096:	2b00      	cmp	r3, #0
 8003098:	f040 8124 	bne.w	80032e4 <HAL_RCC_OscConfig+0x274>
 800309c:	2000      	movs	r0, #0
 800309e:	e02c      	b.n	80030fa <HAL_RCC_OscConfig+0x8a>
 80030a0:	4b8d      	ldr	r3, [pc, #564]	@ (80032d8 <HAL_RCC_OscConfig+0x268>)
 80030a2:	689a      	ldr	r2, [r3, #8]
 80030a4:	f002 020c 	and.w	r2, r2, #12
 80030a8:	2a04      	cmp	r2, #4
 80030aa:	d007      	beq.n	80030bc <HAL_RCC_OscConfig+0x4c>
 80030ac:	689a      	ldr	r2, [r3, #8]
 80030ae:	f002 020c 	and.w	r2, r2, #12
 80030b2:	2a08      	cmp	r2, #8
 80030b4:	d10b      	bne.n	80030ce <HAL_RCC_OscConfig+0x5e>
 80030b6:	685b      	ldr	r3, [r3, #4]
 80030b8:	0259      	lsls	r1, r3, #9
 80030ba:	d508      	bpl.n	80030ce <HAL_RCC_OscConfig+0x5e>
 80030bc:	4b86      	ldr	r3, [pc, #536]	@ (80032d8 <HAL_RCC_OscConfig+0x268>)
 80030be:	681b      	ldr	r3, [r3, #0]
 80030c0:	039a      	lsls	r2, r3, #14
 80030c2:	d5dc      	bpl.n	800307e <HAL_RCC_OscConfig+0xe>
 80030c4:	6863      	ldr	r3, [r4, #4]
 80030c6:	2b00      	cmp	r3, #0
 80030c8:	d1d9      	bne.n	800307e <HAL_RCC_OscConfig+0xe>
 80030ca:	2001      	movs	r0, #1
 80030cc:	e015      	b.n	80030fa <HAL_RCC_OscConfig+0x8a>
 80030ce:	6863      	ldr	r3, [r4, #4]
 80030d0:	4d81      	ldr	r5, [pc, #516]	@ (80032d8 <HAL_RCC_OscConfig+0x268>)
 80030d2:	f5b3 3f80 	cmp.w	r3, #65536	@ 0x10000
 80030d6:	d113      	bne.n	8003100 <HAL_RCC_OscConfig+0x90>
 80030d8:	682b      	ldr	r3, [r5, #0]
 80030da:	f443 3380 	orr.w	r3, r3, #65536	@ 0x10000
 80030de:	602b      	str	r3, [r5, #0]
 80030e0:	f7fe f99a 	bl	8001418 <HAL_GetTick>
 80030e4:	4e7c      	ldr	r6, [pc, #496]	@ (80032d8 <HAL_RCC_OscConfig+0x268>)
 80030e6:	4605      	mov	r5, r0
 80030e8:	6833      	ldr	r3, [r6, #0]
 80030ea:	039b      	lsls	r3, r3, #14
 80030ec:	d4c7      	bmi.n	800307e <HAL_RCC_OscConfig+0xe>
 80030ee:	f7fe f993 	bl	8001418 <HAL_GetTick>
 80030f2:	1b40      	subs	r0, r0, r5
 80030f4:	2864      	cmp	r0, #100	@ 0x64
 80030f6:	d9f7      	bls.n	80030e8 <HAL_RCC_OscConfig+0x78>
 80030f8:	2003      	movs	r0, #3
 80030fa:	b002      	add	sp, #8
 80030fc:	e8bd 81f0 	ldmia.w	sp!, {r4, r5, r6, r7, r8, pc}
 8003100:	f5b3 2fa0 	cmp.w	r3, #327680	@ 0x50000
 8003104:	d104      	bne.n	8003110 <HAL_RCC_OscConfig+0xa0>
 8003106:	682b      	ldr	r3, [r5, #0]
 8003108:	f443 2380 	orr.w	r3, r3, #262144	@ 0x40000
 800310c:	602b      	str	r3, [r5, #0]
 800310e:	e7e3      	b.n	80030d8 <HAL_RCC_OscConfig+0x68>
 8003110:	682a      	ldr	r2, [r5, #0]
 8003112:	f422 3280 	bic.w	r2, r2, #65536	@ 0x10000
 8003116:	602a      	str	r2, [r5, #0]
 8003118:	682a      	ldr	r2, [r5, #0]
 800311a:	f422 2280 	bic.w	r2, r2, #262144	@ 0x40000
 800311e:	602a      	str	r2, [r5, #0]
 8003120:	2b00      	cmp	r3, #0
 8003122:	d1dd      	bne.n	80030e0 <HAL_RCC_OscConfig+0x70>
 8003124:	f7fe f978 	bl	8001418 <HAL_GetTick>
 8003128:	4606      	mov	r6, r0
 800312a:	682b      	ldr	r3, [r5, #0]
 800312c:	039f      	lsls	r7, r3, #14
 800312e:	d5a6      	bpl.n	800307e <HAL_RCC_OscConfig+0xe>
 8003130:	f7fe f972 	bl	8001418 <HAL_GetTick>
 8003134:	1b80      	subs	r0, r0, r6
 8003136:	2864      	cmp	r0, #100	@ 0x64
 8003138:	d9f7      	bls.n	800312a <HAL_RCC_OscConfig+0xba>
 800313a:	e7dd      	b.n	80030f8 <HAL_RCC_OscConfig+0x88>
 800313c:	4b66      	ldr	r3, [pc, #408]	@ (80032d8 <HAL_RCC_OscConfig+0x268>)
 800313e:	689a      	ldr	r2, [r3, #8]
 8003140:	f012 0f0c 	tst.w	r2, #12
 8003144:	d007      	beq.n	8003156 <HAL_RCC_OscConfig+0xe6>
 8003146:	689a      	ldr	r2, [r3, #8]
 8003148:	f002 020c 	and.w	r2, r2, #12
 800314c:	2a08      	cmp	r2, #8
 800314e:	d111      	bne.n	8003174 <HAL_RCC_OscConfig+0x104>
 8003150:	685b      	ldr	r3, [r3, #4]
 8003152:	025d      	lsls	r5, r3, #9
 8003154:	d40e      	bmi.n	8003174 <HAL_RCC_OscConfig+0x104>
 8003156:	4a60      	ldr	r2, [pc, #384]	@ (80032d8 <HAL_RCC_OscConfig+0x268>)
 8003158:	6813      	ldr	r3, [r2, #0]
 800315a:	0799      	lsls	r1, r3, #30
 800315c:	d502      	bpl.n	8003164 <HAL_RCC_OscConfig+0xf4>
 800315e:	68e3      	ldr	r3, [r4, #12]
 8003160:	2b01      	cmp	r3, #1
 8003162:	d1b2      	bne.n	80030ca <HAL_RCC_OscConfig+0x5a>
 8003164:	6813      	ldr	r3, [r2, #0]
 8003166:	6921      	ldr	r1, [r4, #16]
 8003168:	f023 03f8 	bic.w	r3, r3, #248	@ 0xf8
 800316c:	ea43 03c1 	orr.w	r3, r3, r1, lsl #3
 8003170:	6013      	str	r3, [r2, #0]
 8003172:	e787      	b.n	8003084 <HAL_RCC_OscConfig+0x14>
 8003174:	68e2      	ldr	r2, [r4, #12]
 8003176:	4b59      	ldr	r3, [pc, #356]	@ (80032dc <HAL_RCC_OscConfig+0x26c>)
 8003178:	b1b2      	cbz	r2, 80031a8 <HAL_RCC_OscConfig+0x138>
 800317a:	2201      	movs	r2, #1
 800317c:	601a      	str	r2, [r3, #0]
 800317e:	f7fe f94b 	bl	8001418 <HAL_GetTick>
 8003182:	4d55      	ldr	r5, [pc, #340]	@ (80032d8 <HAL_RCC_OscConfig+0x268>)
 8003184:	4606      	mov	r6, r0
 8003186:	682b      	ldr	r3, [r5, #0]
 8003188:	079b      	lsls	r3, r3, #30
 800318a:	d507      	bpl.n	800319c <HAL_RCC_OscConfig+0x12c>
 800318c:	682b      	ldr	r3, [r5, #0]
 800318e:	6922      	ldr	r2, [r4, #16]
 8003190:	f023 03f8 	bic.w	r3, r3, #248	@ 0xf8
 8003194:	ea43 03c2 	orr.w	r3, r3, r2, lsl #3
 8003198:	602b      	str	r3, [r5, #0]
 800319a:	e773      	b.n	8003084 <HAL_RCC_OscConfig+0x14>
 800319c:	f7fe f93c 	bl	8001418 <HAL_GetTick>
 80031a0:	1b80      	subs	r0, r0, r6
 80031a2:	2802      	cmp	r0, #2
 80031a4:	d9ef      	bls.n	8003186 <HAL_RCC_OscConfig+0x116>
 80031a6:	e7a7      	b.n	80030f8 <HAL_RCC_OscConfig+0x88>
 80031a8:	601a      	str	r2, [r3, #0]
 80031aa:	f7fe f935 	bl	8001418 <HAL_GetTick>
 80031ae:	4e4a      	ldr	r6, [pc, #296]	@ (80032d8 <HAL_RCC_OscConfig+0x268>)
 80031b0:	4605      	mov	r5, r0
 80031b2:	6833      	ldr	r3, [r6, #0]
 80031b4:	079f      	lsls	r7, r3, #30
 80031b6:	f57f af65 	bpl.w	8003084 <HAL_RCC_OscConfig+0x14>
 80031ba:	f7fe f92d 	bl	8001418 <HAL_GetTick>
 80031be:	1b40      	subs	r0, r0, r5
 80031c0:	2802      	cmp	r0, #2
 80031c2:	d9f6      	bls.n	80031b2 <HAL_RCC_OscConfig+0x142>
 80031c4:	e798      	b.n	80030f8 <HAL_RCC_OscConfig+0x88>
 80031c6:	6962      	ldr	r2, [r4, #20]
 80031c8:	4b44      	ldr	r3, [pc, #272]	@ (80032dc <HAL_RCC_OscConfig+0x26c>)
 80031ca:	b182      	cbz	r2, 80031ee <HAL_RCC_OscConfig+0x17e>
 80031cc:	2201      	movs	r2, #1
 80031ce:	f8c3 2e80 	str.w	r2, [r3, #3712]	@ 0xe80
 80031d2:	f7fe f921 	bl	8001418 <HAL_GetTick>
 80031d6:	4e40      	ldr	r6, [pc, #256]	@ (80032d8 <HAL_RCC_OscConfig+0x268>)
 80031d8:	4605      	mov	r5, r0
 80031da:	6f73      	ldr	r3, [r6, #116]	@ 0x74
 80031dc:	079b      	lsls	r3, r3, #30
 80031de:	f53f af55 	bmi.w	800308c <HAL_RCC_OscConfig+0x1c>
 80031e2:	f7fe f919 	bl	8001418 <HAL_GetTick>
 80031e6:	1b40      	subs	r0, r0, r5
 80031e8:	2802      	cmp	r0, #2
 80031ea:	d9f6      	bls.n	80031da <HAL_RCC_OscConfig+0x16a>
 80031ec:	e784      	b.n	80030f8 <HAL_RCC_OscConfig+0x88>
 80031ee:	f8c3 2e80 	str.w	r2, [r3, #3712]	@ 0xe80
 80031f2:	f7fe f911 	bl	8001418 <HAL_GetTick>
 80031f6:	4e38      	ldr	r6, [pc, #224]	@ (80032d8 <HAL_RCC_OscConfig+0x268>)
 80031f8:	4605      	mov	r5, r0
 80031fa:	6f73      	ldr	r3, [r6, #116]	@ 0x74
 80031fc:	079f      	lsls	r7, r3, #30
 80031fe:	f57f af45 	bpl.w	800308c <HAL_RCC_OscConfig+0x1c>
 8003202:	f7fe f909 	bl	8001418 <HAL_GetTick>
 8003206:	1b40      	subs	r0, r0, r5
 8003208:	2802      	cmp	r0, #2
 800320a:	d9f6      	bls.n	80031fa <HAL_RCC_OscConfig+0x18a>
 800320c:	e774      	b.n	80030f8 <HAL_RCC_OscConfig+0x88>
 800320e:	4b32      	ldr	r3, [pc, #200]	@ (80032d8 <HAL_RCC_OscConfig+0x268>)
 8003210:	6c1a      	ldr	r2, [r3, #64]	@ 0x40
 8003212:	f012 5280 	ands.w	r2, r2, #268435456	@ 0x10000000
 8003216:	d128      	bne.n	800326a <HAL_RCC_OscConfig+0x1fa>
 8003218:	9201      	str	r2, [sp, #4]
 800321a:	6c1a      	ldr	r2, [r3, #64]	@ 0x40
 800321c:	f042 5280 	orr.w	r2, r2, #268435456	@ 0x10000000
 8003220:	641a      	str	r2, [r3, #64]	@ 0x40
 8003222:	6c1b      	ldr	r3, [r3, #64]	@ 0x40
 8003224:	f003 5380 	and.w	r3, r3, #268435456	@ 0x10000000
 8003228:	9301      	str	r3, [sp, #4]
 800322a:	9b01      	ldr	r3, [sp, #4]
 800322c:	2701      	movs	r7, #1
 800322e:	4d2c      	ldr	r5, [pc, #176]	@ (80032e0 <HAL_RCC_OscConfig+0x270>)
 8003230:	682b      	ldr	r3, [r5, #0]
 8003232:	05d8      	lsls	r0, r3, #23
 8003234:	d51b      	bpl.n	800326e <HAL_RCC_OscConfig+0x1fe>
 8003236:	68a3      	ldr	r3, [r4, #8]
 8003238:	4d27      	ldr	r5, [pc, #156]	@ (80032d8 <HAL_RCC_OscConfig+0x268>)
 800323a:	2b01      	cmp	r3, #1
 800323c:	d127      	bne.n	800328e <HAL_RCC_OscConfig+0x21e>
 800323e:	6f2b      	ldr	r3, [r5, #112]	@ 0x70
 8003240:	f043 0301 	orr.w	r3, r3, #1
 8003244:	672b      	str	r3, [r5, #112]	@ 0x70
 8003246:	f7fe f8e7 	bl	8001418 <HAL_GetTick>
 800324a:	4e23      	ldr	r6, [pc, #140]	@ (80032d8 <HAL_RCC_OscConfig+0x268>)
 800324c:	4605      	mov	r5, r0
 800324e:	f241 3888 	movw	r8, #5000	@ 0x1388
 8003252:	6f33      	ldr	r3, [r6, #112]	@ 0x70
 8003254:	079a      	lsls	r2, r3, #30
 8003256:	d539      	bpl.n	80032cc <HAL_RCC_OscConfig+0x25c>
 8003258:	2f00      	cmp	r7, #0
 800325a:	f43f af1b 	beq.w	8003094 <HAL_RCC_OscConfig+0x24>
 800325e:	4a1e      	ldr	r2, [pc, #120]	@ (80032d8 <HAL_RCC_OscConfig+0x268>)
 8003260:	6c13      	ldr	r3, [r2, #64]	@ 0x40
 8003262:	f023 5380 	bic.w	r3, r3, #268435456	@ 0x10000000
 8003266:	6413      	str	r3, [r2, #64]	@ 0x40
 8003268:	e714      	b.n	8003094 <HAL_RCC_OscConfig+0x24>
 800326a:	2700      	movs	r7, #0
 800326c:	e7df      	b.n	800322e <HAL_RCC_OscConfig+0x1be>
 800326e:	682b      	ldr	r3, [r5, #0]
 8003270:	f443 7380 	orr.w	r3, r3, #256	@ 0x100
 8003274:	602b      	str	r3, [r5, #0]
 8003276:	f7fe f8cf 	bl	8001418 <HAL_GetTick>
 800327a:	4606      	mov	r6, r0
 800327c:	682b      	ldr	r3, [r5, #0]
 800327e:	05d9      	lsls	r1, r3, #23
 8003280:	d4d9      	bmi.n	8003236 <HAL_RCC_OscConfig+0x1c6>
 8003282:	f7fe f8c9 	bl	8001418 <HAL_GetTick>
 8003286:	1b80      	subs	r0, r0, r6
 8003288:	2802      	cmp	r0, #2
 800328a:	d9f7      	bls.n	800327c <HAL_RCC_OscConfig+0x20c>
 800328c:	e734      	b.n	80030f8 <HAL_RCC_OscConfig+0x88>
 800328e:	2b05      	cmp	r3, #5
 8003290:	d104      	bne.n	800329c <HAL_RCC_OscConfig+0x22c>
 8003292:	6f2b      	ldr	r3, [r5, #112]	@ 0x70
 8003294:	f043 0304 	orr.w	r3, r3, #4
 8003298:	672b      	str	r3, [r5, #112]	@ 0x70
 800329a:	e7d0      	b.n	800323e <HAL_RCC_OscConfig+0x1ce>
 800329c:	6f2a      	ldr	r2, [r5, #112]	@ 0x70
 800329e:	f022 0201 	bic.w	r2, r2, #1
 80032a2:	672a      	str	r2, [r5, #112]	@ 0x70
 80032a4:	6f2a      	ldr	r2, [r5, #112]	@ 0x70
 80032a6:	f022 0204 	bic.w	r2, r2, #4
 80032aa:	672a      	str	r2, [r5, #112]	@ 0x70
 80032ac:	2b00      	cmp	r3, #0
 80032ae:	d1ca      	bne.n	8003246 <HAL_RCC_OscConfig+0x1d6>
 80032b0:	f7fe f8b2 	bl	8001418 <HAL_GetTick>
 80032b4:	f241 3888 	movw	r8, #5000	@ 0x1388
 80032b8:	4606      	mov	r6, r0
 80032ba:	6f2b      	ldr	r3, [r5, #112]	@ 0x70
 80032bc:	079b      	lsls	r3, r3, #30
 80032be:	d5cb      	bpl.n	8003258 <HAL_RCC_OscConfig+0x1e8>
 80032c0:	f7fe f8aa 	bl	8001418 <HAL_GetTick>
 80032c4:	1b80      	subs	r0, r0, r6
 80032c6:	4540      	cmp	r0, r8
 80032c8:	d9f7      	bls.n	80032ba <HAL_RCC_OscConfig+0x24a>
 80032ca:	e715      	b.n	80030f8 <HAL_RCC_OscConfig+0x88>
 80032cc:	f7fe f8a4 	bl	8001418 <HAL_GetTick>
 80032d0:	1b40      	subs	r0, r0, r5
 80032d2:	4540      	cmp	r0, r8
 80032d4:	d9bd      	bls.n	8003252 <HAL_RCC_OscConfig+0x1e2>
 80032d6:	e70f      	b.n	80030f8 <HAL_RCC_OscConfig+0x88>
 80032d8:	40023800 	.word	0x40023800
 80032dc:	42470000 	.word	0x42470000
 80032e0:	40007000 	.word	0x40007000
 80032e4:	4d37      	ldr	r5, [pc, #220]	@ (80033c4 <HAL_RCC_OscConfig+0x354>)
 80032e6:	68aa      	ldr	r2, [r5, #8]
 80032e8:	f002 020c 	and.w	r2, r2, #12
 80032ec:	2a08      	cmp	r2, #8
 80032ee:	d03e      	beq.n	800336e <HAL_RCC_OscConfig+0x2fe>
 80032f0:	2b02      	cmp	r3, #2
 80032f2:	4b35      	ldr	r3, [pc, #212]	@ (80033c8 <HAL_RCC_OscConfig+0x358>)
 80032f4:	f04f 0200 	mov.w	r2, #0
 80032f8:	661a      	str	r2, [r3, #96]	@ 0x60
 80032fa:	d12b      	bne.n	8003354 <HAL_RCC_OscConfig+0x2e4>
 80032fc:	f7fe f88c 	bl	8001418 <HAL_GetTick>
 8003300:	4606      	mov	r6, r0
 8003302:	682b      	ldr	r3, [r5, #0]
 8003304:	0199      	lsls	r1, r3, #6
 8003306:	d41f      	bmi.n	8003348 <HAL_RCC_OscConfig+0x2d8>
 8003308:	e9d4 3207 	ldrd	r3, r2, [r4, #28]
 800330c:	4313      	orrs	r3, r2
 800330e:	6a62      	ldr	r2, [r4, #36]	@ 0x24
 8003310:	ea43 1382 	orr.w	r3, r3, r2, lsl #6
 8003314:	6ae2      	ldr	r2, [r4, #44]	@ 0x2c
 8003316:	ea43 6302 	orr.w	r3, r3, r2, lsl #24
 800331a:	6aa2      	ldr	r2, [r4, #40]	@ 0x28
 800331c:	0852      	lsrs	r2, r2, #1
 800331e:	3a01      	subs	r2, #1
 8003320:	ea43 4302 	orr.w	r3, r3, r2, lsl #16
 8003324:	606b      	str	r3, [r5, #4]
 8003326:	4b28      	ldr	r3, [pc, #160]	@ (80033c8 <HAL_RCC_OscConfig+0x358>)
 8003328:	4d26      	ldr	r5, [pc, #152]	@ (80033c4 <HAL_RCC_OscConfig+0x354>)
 800332a:	2201      	movs	r2, #1
 800332c:	661a      	str	r2, [r3, #96]	@ 0x60
 800332e:	f7fe f873 	bl	8001418 <HAL_GetTick>
 8003332:	4604      	mov	r4, r0
 8003334:	682b      	ldr	r3, [r5, #0]
 8003336:	019a      	lsls	r2, r3, #6
 8003338:	f53f aeb0 	bmi.w	800309c <HAL_RCC_OscConfig+0x2c>
 800333c:	f7fe f86c 	bl	8001418 <HAL_GetTick>
 8003340:	1b00      	subs	r0, r0, r4
 8003342:	2802      	cmp	r0, #2
 8003344:	d9f6      	bls.n	8003334 <HAL_RCC_OscConfig+0x2c4>
 8003346:	e6d7      	b.n	80030f8 <HAL_RCC_OscConfig+0x88>
 8003348:	f7fe f866 	bl	8001418 <HAL_GetTick>
 800334c:	1b80      	subs	r0, r0, r6
 800334e:	2802      	cmp	r0, #2
 8003350:	d9d7      	bls.n	8003302 <HAL_RCC_OscConfig+0x292>
 8003352:	e6d1      	b.n	80030f8 <HAL_RCC_OscConfig+0x88>
 8003354:	f7fe f860 	bl	8001418 <HAL_GetTick>
 8003358:	4604      	mov	r4, r0
 800335a:	682b      	ldr	r3, [r5, #0]
 800335c:	019b      	lsls	r3, r3, #6
 800335e:	f57f ae9d 	bpl.w	800309c <HAL_RCC_OscConfig+0x2c>
 8003362:	f7fe f859 	bl	8001418 <HAL_GetTick>
 8003366:	1b00      	subs	r0, r0, r4
 8003368:	2802      	cmp	r0, #2
 800336a:	d9f6      	bls.n	800335a <HAL_RCC_OscConfig+0x2ea>
 800336c:	e6c4      	b.n	80030f8 <HAL_RCC_OscConfig+0x88>
 800336e:	2b01      	cmp	r3, #1
 8003370:	f43f aeab 	beq.w	80030ca <HAL_RCC_OscConfig+0x5a>
 8003374:	686b      	ldr	r3, [r5, #4]
 8003376:	69e2      	ldr	r2, [r4, #28]
 8003378:	f403 0180 	and.w	r1, r3, #4194304	@ 0x400000
 800337c:	4291      	cmp	r1, r2
 800337e:	f47f aea4 	bne.w	80030ca <HAL_RCC_OscConfig+0x5a>
 8003382:	6a21      	ldr	r1, [r4, #32]
 8003384:	f003 023f 	and.w	r2, r3, #63	@ 0x3f
 8003388:	428a      	cmp	r2, r1
 800338a:	f47f ae9e 	bne.w	80030ca <HAL_RCC_OscConfig+0x5a>
 800338e:	6a61      	ldr	r1, [r4, #36]	@ 0x24
 8003390:	f647 72c0 	movw	r2, #32704	@ 0x7fc0
 8003394:	401a      	ands	r2, r3
 8003396:	ebb2 1f81 	cmp.w	r2, r1, lsl #6
 800339a:	f47f ae96 	bne.w	80030ca <HAL_RCC_OscConfig+0x5a>
 800339e:	6aa2      	ldr	r2, [r4, #40]	@ 0x28
 80033a0:	0852      	lsrs	r2, r2, #1
 80033a2:	f403 3140 	and.w	r1, r3, #196608	@ 0x30000
 80033a6:	3a01      	subs	r2, #1
 80033a8:	ebb1 4f02 	cmp.w	r1, r2, lsl #16
 80033ac:	f47f ae8d 	bne.w	80030ca <HAL_RCC_OscConfig+0x5a>
 80033b0:	6ae2      	ldr	r2, [r4, #44]	@ 0x2c
 80033b2:	f003 6370 	and.w	r3, r3, #251658240	@ 0xf000000
 80033b6:	ebb3 6f02 	cmp.w	r3, r2, lsl #24
 80033ba:	bf14      	ite	ne
 80033bc:	2001      	movne	r0, #1
 80033be:	2000      	moveq	r0, #0
 80033c0:	e69b      	b.n	80030fa <HAL_RCC_OscConfig+0x8a>
 80033c2:	bf00      	nop
 80033c4:	40023800 	.word	0x40023800
 80033c8:	42470000 	.word	0x42470000

080033cc <HAL_RCC_GetSysClockFreq>:
 80033cc:	4913      	ldr	r1, [pc, #76]	@ (800341c <HAL_RCC_GetSysClockFreq+0x50>)
 80033ce:	b508      	push	{r3, lr}
 80033d0:	688b      	ldr	r3, [r1, #8]
 80033d2:	f003 030c 	and.w	r3, r3, #12
 80033d6:	2b04      	cmp	r3, #4
 80033d8:	d01c      	beq.n	8003414 <HAL_RCC_GetSysClockFreq+0x48>
 80033da:	2b08      	cmp	r3, #8
 80033dc:	d11c      	bne.n	8003418 <HAL_RCC_GetSysClockFreq+0x4c>
 80033de:	684a      	ldr	r2, [r1, #4]
 80033e0:	684b      	ldr	r3, [r1, #4]
 80033e2:	6849      	ldr	r1, [r1, #4]
 80033e4:	f413 0380 	ands.w	r3, r3, #4194304	@ 0x400000
 80033e8:	bf14      	ite	ne
 80033ea:	480d      	ldrne	r0, [pc, #52]	@ (8003420 <HAL_RCC_GetSysClockFreq+0x54>)
 80033ec:	480d      	ldreq	r0, [pc, #52]	@ (8003424 <HAL_RCC_GetSysClockFreq+0x58>)
 80033ee:	f3c1 1188 	ubfx	r1, r1, #6, #9
 80033f2:	bf18      	it	ne
 80033f4:	2300      	movne	r3, #0
 80033f6:	f002 023f 	and.w	r2, r2, #63	@ 0x3f
 80033fa:	fba1 0100 	umull	r0, r1, r1, r0
 80033fe:	f7fc feeb 	bl	80001d8 <__aeabi_uldivmod>
 8003402:	4b06      	ldr	r3, [pc, #24]	@ (800341c <HAL_RCC_GetSysClockFreq+0x50>)
 8003404:	685b      	ldr	r3, [r3, #4]
 8003406:	f3c3 4301 	ubfx	r3, r3, #16, #2
 800340a:	3301      	adds	r3, #1
 800340c:	005b      	lsls	r3, r3, #1
 800340e:	fbb0 f0f3 	udiv	r0, r0, r3
 8003412:	bd08      	pop	{r3, pc}
 8003414:	4802      	ldr	r0, [pc, #8]	@ (8003420 <HAL_RCC_GetSysClockFreq+0x54>)
 8003416:	e7fc      	b.n	8003412 <HAL_RCC_GetSysClockFreq+0x46>
 8003418:	4802      	ldr	r0, [pc, #8]	@ (8003424 <HAL_RCC_GetSysClockFreq+0x58>)
 800341a:	e7fa      	b.n	8003412 <HAL_RCC_GetSysClockFreq+0x46>
 800341c:	40023800 	.word	0x40023800
 8003420:	007a1200 	.word	0x007a1200
 8003424:	00f42400 	.word	0x00f42400

08003428 <HAL_RCC_ClockConfig>:
 8003428:	e92d 41f0 	stmdb	sp!, {r4, r5, r6, r7, r8, lr}
 800342c:	460d      	mov	r5, r1
 800342e:	4604      	mov	r4, r0
 8003430:	b910      	cbnz	r0, 8003438 <HAL_RCC_ClockConfig+0x10>
 8003432:	2001      	movs	r0, #1
 8003434:	e8bd 81f0 	ldmia.w	sp!, {r4, r5, r6, r7, r8, pc}
 8003438:	4b43      	ldr	r3, [pc, #268]	@ (8003548 <HAL_RCC_ClockConfig+0x120>)
 800343a:	681a      	ldr	r2, [r3, #0]
 800343c:	f002 0207 	and.w	r2, r2, #7
 8003440:	428a      	cmp	r2, r1
 8003442:	d328      	bcc.n	8003496 <HAL_RCC_ClockConfig+0x6e>
 8003444:	6821      	ldr	r1, [r4, #0]
 8003446:	078f      	lsls	r7, r1, #30
 8003448:	d42d      	bmi.n	80034a6 <HAL_RCC_ClockConfig+0x7e>
 800344a:	07c8      	lsls	r0, r1, #31
 800344c:	d440      	bmi.n	80034d0 <HAL_RCC_ClockConfig+0xa8>
 800344e:	4b3e      	ldr	r3, [pc, #248]	@ (8003548 <HAL_RCC_ClockConfig+0x120>)
 8003450:	681a      	ldr	r2, [r3, #0]
 8003452:	f002 0207 	and.w	r2, r2, #7
 8003456:	42aa      	cmp	r2, r5
 8003458:	d865      	bhi.n	8003526 <HAL_RCC_ClockConfig+0xfe>
 800345a:	6822      	ldr	r2, [r4, #0]
 800345c:	0751      	lsls	r1, r2, #29
 800345e:	d46b      	bmi.n	8003538 <HAL_RCC_ClockConfig+0x110>
 8003460:	0713      	lsls	r3, r2, #28
 8003462:	d507      	bpl.n	8003474 <HAL_RCC_ClockConfig+0x4c>
 8003464:	4a39      	ldr	r2, [pc, #228]	@ (800354c <HAL_RCC_ClockConfig+0x124>)
 8003466:	6921      	ldr	r1, [r4, #16]
 8003468:	6893      	ldr	r3, [r2, #8]
 800346a:	f423 4360 	bic.w	r3, r3, #57344	@ 0xe000
 800346e:	ea43 03c1 	orr.w	r3, r3, r1, lsl #3
 8003472:	6093      	str	r3, [r2, #8]
 8003474:	f7ff ffaa 	bl	80033cc <HAL_RCC_GetSysClockFreq>
 8003478:	4b34      	ldr	r3, [pc, #208]	@ (800354c <HAL_RCC_ClockConfig+0x124>)
 800347a:	4a35      	ldr	r2, [pc, #212]	@ (8003550 <HAL_RCC_ClockConfig+0x128>)
 800347c:	689b      	ldr	r3, [r3, #8]
 800347e:	f3c3 1303 	ubfx	r3, r3, #4, #4
 8003482:	5cd3      	ldrb	r3, [r2, r3]
 8003484:	40d8      	lsrs	r0, r3
 8003486:	4b33      	ldr	r3, [pc, #204]	@ (8003554 <HAL_RCC_ClockConfig+0x12c>)
 8003488:	6018      	str	r0, [r3, #0]
 800348a:	4b33      	ldr	r3, [pc, #204]	@ (8003558 <HAL_RCC_ClockConfig+0x130>)
 800348c:	6818      	ldr	r0, [r3, #0]
 800348e:	f7fd ff79 	bl	8001384 <HAL_InitTick>
 8003492:	2000      	movs	r0, #0
 8003494:	e7ce      	b.n	8003434 <HAL_RCC_ClockConfig+0xc>
 8003496:	b2ca      	uxtb	r2, r1
 8003498:	701a      	strb	r2, [r3, #0]
 800349a:	681b      	ldr	r3, [r3, #0]
 800349c:	f003 0307 	and.w	r3, r3, #7
 80034a0:	428b      	cmp	r3, r1
 80034a2:	d1c6      	bne.n	8003432 <HAL_RCC_ClockConfig+0xa>
 80034a4:	e7ce      	b.n	8003444 <HAL_RCC_ClockConfig+0x1c>
 80034a6:	4b29      	ldr	r3, [pc, #164]	@ (800354c <HAL_RCC_ClockConfig+0x124>)
 80034a8:	f011 0f04 	tst.w	r1, #4
 80034ac:	bf1e      	ittt	ne
 80034ae:	689a      	ldrne	r2, [r3, #8]
 80034b0:	f442 52e0 	orrne.w	r2, r2, #7168	@ 0x1c00
 80034b4:	609a      	strne	r2, [r3, #8]
 80034b6:	070e      	lsls	r6, r1, #28
 80034b8:	bf42      	ittt	mi
 80034ba:	689a      	ldrmi	r2, [r3, #8]
 80034bc:	f442 4260 	orrmi.w	r2, r2, #57344	@ 0xe000
 80034c0:	609a      	strmi	r2, [r3, #8]
 80034c2:	689a      	ldr	r2, [r3, #8]
 80034c4:	68a0      	ldr	r0, [r4, #8]
 80034c6:	f022 02f0 	bic.w	r2, r2, #240	@ 0xf0
 80034ca:	4302      	orrs	r2, r0
 80034cc:	609a      	str	r2, [r3, #8]
 80034ce:	e7bc      	b.n	800344a <HAL_RCC_ClockConfig+0x22>
 80034d0:	6862      	ldr	r2, [r4, #4]
 80034d2:	4b1e      	ldr	r3, [pc, #120]	@ (800354c <HAL_RCC_ClockConfig+0x124>)
 80034d4:	2a01      	cmp	r2, #1
 80034d6:	d11c      	bne.n	8003512 <HAL_RCC_ClockConfig+0xea>
 80034d8:	681b      	ldr	r3, [r3, #0]
 80034da:	f413 3f00 	tst.w	r3, #131072	@ 0x20000
 80034de:	d0a8      	beq.n	8003432 <HAL_RCC_ClockConfig+0xa>
 80034e0:	4e1a      	ldr	r6, [pc, #104]	@ (800354c <HAL_RCC_ClockConfig+0x124>)
 80034e2:	68b3      	ldr	r3, [r6, #8]
 80034e4:	f023 0303 	bic.w	r3, r3, #3
 80034e8:	4313      	orrs	r3, r2
 80034ea:	60b3      	str	r3, [r6, #8]
 80034ec:	f7fd ff94 	bl	8001418 <HAL_GetTick>
 80034f0:	f241 3888 	movw	r8, #5000	@ 0x1388
 80034f4:	4607      	mov	r7, r0
 80034f6:	68b3      	ldr	r3, [r6, #8]
 80034f8:	6862      	ldr	r2, [r4, #4]
 80034fa:	f003 030c 	and.w	r3, r3, #12
 80034fe:	ebb3 0f82 	cmp.w	r3, r2, lsl #2
 8003502:	d0a4      	beq.n	800344e <HAL_RCC_ClockConfig+0x26>
 8003504:	f7fd ff88 	bl	8001418 <HAL_GetTick>
 8003508:	1bc0      	subs	r0, r0, r7
 800350a:	4540      	cmp	r0, r8
 800350c:	d9f3      	bls.n	80034f6 <HAL_RCC_ClockConfig+0xce>
 800350e:	2003      	movs	r0, #3
 8003510:	e790      	b.n	8003434 <HAL_RCC_ClockConfig+0xc>
 8003512:	1e91      	subs	r1, r2, #2
 8003514:	2901      	cmp	r1, #1
 8003516:	681b      	ldr	r3, [r3, #0]
 8003518:	d802      	bhi.n	8003520 <HAL_RCC_ClockConfig+0xf8>
 800351a:	f013 7f00 	tst.w	r3, #33554432	@ 0x2000000
 800351e:	e7de      	b.n	80034de <HAL_RCC_ClockConfig+0xb6>
 8003520:	f013 0f02 	tst.w	r3, #2
 8003524:	e7db      	b.n	80034de <HAL_RCC_ClockConfig+0xb6>
 8003526:	b2ea      	uxtb	r2, r5
 8003528:	701a      	strb	r2, [r3, #0]
 800352a:	681b      	ldr	r3, [r3, #0]
 800352c:	f003 0307 	and.w	r3, r3, #7
 8003530:	42ab      	cmp	r3, r5
 8003532:	f47f af7e 	bne.w	8003432 <HAL_RCC_ClockConfig+0xa>
 8003536:	e790      	b.n	800345a <HAL_RCC_ClockConfig+0x32>
 8003538:	4904      	ldr	r1, [pc, #16]	@ (800354c <HAL_RCC_ClockConfig+0x124>)
 800353a:	68e0      	ldr	r0, [r4, #12]
 800353c:	688b      	ldr	r3, [r1, #8]
 800353e:	f423 53e0 	bic.w	r3, r3, #7168	@ 0x1c00
 8003542:	4303      	orrs	r3, r0
 8003544:	608b      	str	r3, [r1, #8]
 8003546:	e78b      	b.n	8003460 <HAL_RCC_ClockConfig+0x38>
 8003548:	40023c00 	.word	0x40023c00
 800354c:	40023800 	.word	0x40023800
 8003550:	08004104 	.word	0x08004104
 8003554:	20000000 	.word	0x20000000
 8003558:	20000018 	.word	0x20000018

0800355c <HAL_RCC_GetPCLK1Freq>:
 800355c:	4b04      	ldr	r3, [pc, #16]	@ (8003570 <HAL_RCC_GetPCLK1Freq+0x14>)
 800355e:	4a05      	ldr	r2, [pc, #20]	@ (8003574 <HAL_RCC_GetPCLK1Freq+0x18>)
 8003560:	689b      	ldr	r3, [r3, #8]
 8003562:	f3c3 2382 	ubfx	r3, r3, #10, #3
 8003566:	5cd3      	ldrb	r3, [r2, r3]
 8003568:	4a03      	ldr	r2, [pc, #12]	@ (8003578 <HAL_RCC_GetPCLK1Freq+0x1c>)
 800356a:	6810      	ldr	r0, [r2, #0]
 800356c:	40d8      	lsrs	r0, r3
 800356e:	4770      	bx	lr
 8003570:	40023800 	.word	0x40023800
 8003574:	080040fc 	.word	0x080040fc
 8003578:	20000000 	.word	0x20000000

0800357c <HAL_RCC_GetPCLK2Freq>:
 800357c:	4b04      	ldr	r3, [pc, #16]	@ (8003590 <HAL_RCC_GetPCLK2Freq+0x14>)
 800357e:	4a05      	ldr	r2, [pc, #20]	@ (8003594 <HAL_RCC_GetPCLK2Freq+0x18>)
 8003580:	689b      	ldr	r3, [r3, #8]
 8003582:	f3c3 3342 	ubfx	r3, r3, #13, #3
 8003586:	5cd3      	ldrb	r3, [r2, r3]
 8003588:	4a03      	ldr	r2, [pc, #12]	@ (8003598 <HAL_RCC_GetPCLK2Freq+0x1c>)
 800358a:	6810      	ldr	r0, [r2, #0]
 800358c:	40d8      	lsrs	r0, r3
 800358e:	4770      	bx	lr
 8003590:	40023800 	.word	0x40023800
 8003594:	080040fc 	.word	0x080040fc
 8003598:	20000000 	.word	0x20000000

0800359c <HAL_TIM_Base_Start_IT>:
 800359c:	f890 303d 	ldrb.w	r3, [r0, #61]	@ 0x3d
 80035a0:	2b01      	cmp	r3, #1
 80035a2:	d128      	bne.n	80035f6 <HAL_TIM_Base_Start_IT+0x5a>
 80035a4:	2302      	movs	r3, #2
 80035a6:	f880 303d 	strb.w	r3, [r0, #61]	@ 0x3d
 80035aa:	6803      	ldr	r3, [r0, #0]
 80035ac:	68da      	ldr	r2, [r3, #12]
 80035ae:	f042 0201 	orr.w	r2, r2, #1
 80035b2:	60da      	str	r2, [r3, #12]
 80035b4:	4a11      	ldr	r2, [pc, #68]	@ (80035fc <HAL_TIM_Base_Start_IT+0x60>)
 80035b6:	4293      	cmp	r3, r2
 80035b8:	d012      	beq.n	80035e0 <HAL_TIM_Base_Start_IT+0x44>
 80035ba:	f1b3 4f80 	cmp.w	r3, #1073741824	@ 0x40000000
 80035be:	d00f      	beq.n	80035e0 <HAL_TIM_Base_Start_IT+0x44>
 80035c0:	f5a2 427c 	sub.w	r2, r2, #64512	@ 0xfc00
 80035c4:	4293      	cmp	r3, r2
 80035c6:	d00b      	beq.n	80035e0 <HAL_TIM_Base_Start_IT+0x44>
 80035c8:	f502 6280 	add.w	r2, r2, #1024	@ 0x400
 80035cc:	4293      	cmp	r3, r2
 80035ce:	d007      	beq.n	80035e0 <HAL_TIM_Base_Start_IT+0x44>
 80035d0:	f502 6280 	add.w	r2, r2, #1024	@ 0x400
 80035d4:	4293      	cmp	r3, r2
 80035d6:	d003      	beq.n	80035e0 <HAL_TIM_Base_Start_IT+0x44>
 80035d8:	f502 329a 	add.w	r2, r2, #78848	@ 0x13400
 80035dc:	4293      	cmp	r3, r2
 80035de:	d104      	bne.n	80035ea <HAL_TIM_Base_Start_IT+0x4e>
 80035e0:	689a      	ldr	r2, [r3, #8]
 80035e2:	f002 0207 	and.w	r2, r2, #7
 80035e6:	2a06      	cmp	r2, #6
 80035e8:	d003      	beq.n	80035f2 <HAL_TIM_Base_Start_IT+0x56>
 80035ea:	681a      	ldr	r2, [r3, #0]
 80035ec:	f042 0201 	orr.w	r2, r2, #1
 80035f0:	601a      	str	r2, [r3, #0]
 80035f2:	2000      	movs	r0, #0
 80035f4:	4770      	bx	lr
 80035f6:	2001      	movs	r0, #1
 80035f8:	4770      	bx	lr
 80035fa:	bf00      	nop
 80035fc:	40010000 	.word	0x40010000

08003600 <HAL_TIM_Base_Stop_IT>:
 8003600:	6803      	ldr	r3, [r0, #0]
 8003602:	68da      	ldr	r2, [r3, #12]
 8003604:	f022 0201 	bic.w	r2, r2, #1
 8003608:	60da      	str	r2, [r3, #12]
 800360a:	6a19      	ldr	r1, [r3, #32]
 800360c:	f241 1211 	movw	r2, #4369	@ 0x1111
 8003610:	4211      	tst	r1, r2
 8003612:	d108      	bne.n	8003626 <HAL_TIM_Base_Stop_IT+0x26>
 8003614:	6a19      	ldr	r1, [r3, #32]
 8003616:	f240 4244 	movw	r2, #1092	@ 0x444
 800361a:	4211      	tst	r1, r2
 800361c:	bf02      	ittt	eq
 800361e:	681a      	ldreq	r2, [r3, #0]
 8003620:	f022 0201 	biceq.w	r2, r2, #1
 8003624:	601a      	streq	r2, [r3, #0]
 8003626:	2301      	movs	r3, #1
 8003628:	f880 303d 	strb.w	r3, [r0, #61]	@ 0x3d
 800362c:	2000      	movs	r0, #0
 800362e:	4770      	bx	lr

08003630 <HAL_TIM_OC_DelayElapsedCallback>:
 8003630:	4770      	bx	lr

08003632 <HAL_TIM_IC_CaptureCallback>:
 8003632:	4770      	bx	lr

08003634 <HAL_TIM_PWM_PulseFinishedCallback>:
 8003634:	4770      	bx	lr

08003636 <HAL_TIM_TriggerCallback>:
 8003636:	4770      	bx	lr

08003638 <HAL_TIM_IRQHandler>:
 8003638:	6803      	ldr	r3, [r0, #0]
 800363a:	b570      	push	{r4, r5, r6, lr}
 800363c:	68dd      	ldr	r5, [r3, #12]
 800363e:	691e      	ldr	r6, [r3, #16]
 8003640:	07b1      	lsls	r1, r6, #30
 8003642:	4604      	mov	r4, r0
 8003644:	d50d      	bpl.n	8003662 <HAL_TIM_IRQHandler+0x2a>
 8003646:	07aa      	lsls	r2, r5, #30
 8003648:	d50b      	bpl.n	8003662 <HAL_TIM_IRQHandler+0x2a>
 800364a:	f06f 0202 	mvn.w	r2, #2
 800364e:	611a      	str	r2, [r3, #16]
 8003650:	2201      	movs	r2, #1
 8003652:	7702      	strb	r2, [r0, #28]
 8003654:	699b      	ldr	r3, [r3, #24]
 8003656:	079b      	lsls	r3, r3, #30
 8003658:	d069      	beq.n	800372e <HAL_TIM_IRQHandler+0xf6>
 800365a:	f7ff ffea 	bl	8003632 <HAL_TIM_IC_CaptureCallback>
 800365e:	2300      	movs	r3, #0
 8003660:	7723      	strb	r3, [r4, #28]
 8003662:	0771      	lsls	r1, r6, #29
 8003664:	d510      	bpl.n	8003688 <HAL_TIM_IRQHandler+0x50>
 8003666:	076a      	lsls	r2, r5, #29
 8003668:	d50e      	bpl.n	8003688 <HAL_TIM_IRQHandler+0x50>
 800366a:	6823      	ldr	r3, [r4, #0]
 800366c:	f06f 0204 	mvn.w	r2, #4
 8003670:	611a      	str	r2, [r3, #16]
 8003672:	2202      	movs	r2, #2
 8003674:	7722      	strb	r2, [r4, #28]
 8003676:	699b      	ldr	r3, [r3, #24]
 8003678:	f413 7f40 	tst.w	r3, #768	@ 0x300
 800367c:	4620      	mov	r0, r4
 800367e:	d05c      	beq.n	800373a <HAL_TIM_IRQHandler+0x102>
 8003680:	f7ff ffd7 	bl	8003632 <HAL_TIM_IC_CaptureCallback>
 8003684:	2300      	movs	r3, #0
 8003686:	7723      	strb	r3, [r4, #28]
 8003688:	0733      	lsls	r3, r6, #28
 800368a:	d50f      	bpl.n	80036ac <HAL_TIM_IRQHandler+0x74>
 800368c:	0728      	lsls	r0, r5, #28
 800368e:	d50d      	bpl.n	80036ac <HAL_TIM_IRQHandler+0x74>
 8003690:	6823      	ldr	r3, [r4, #0]
 8003692:	f06f 0208 	mvn.w	r2, #8
 8003696:	611a      	str	r2, [r3, #16]
 8003698:	2204      	movs	r2, #4
 800369a:	7722      	strb	r2, [r4, #28]
 800369c:	69db      	ldr	r3, [r3, #28]
 800369e:	0799      	lsls	r1, r3, #30
 80036a0:	4620      	mov	r0, r4
 80036a2:	d050      	beq.n	8003746 <HAL_TIM_IRQHandler+0x10e>
 80036a4:	f7ff ffc5 	bl	8003632 <HAL_TIM_IC_CaptureCallback>
 80036a8:	2300      	movs	r3, #0
 80036aa:	7723      	strb	r3, [r4, #28]
 80036ac:	06f2      	lsls	r2, r6, #27
 80036ae:	d510      	bpl.n	80036d2 <HAL_TIM_IRQHandler+0x9a>
 80036b0:	06eb      	lsls	r3, r5, #27
 80036b2:	d50e      	bpl.n	80036d2 <HAL_TIM_IRQHandler+0x9a>
 80036b4:	6823      	ldr	r3, [r4, #0]
 80036b6:	f06f 0210 	mvn.w	r2, #16
 80036ba:	611a      	str	r2, [r3, #16]
 80036bc:	2208      	movs	r2, #8
 80036be:	7722      	strb	r2, [r4, #28]
 80036c0:	69db      	ldr	r3, [r3, #28]
 80036c2:	f413 7f40 	tst.w	r3, #768	@ 0x300
 80036c6:	4620      	mov	r0, r4
 80036c8:	d043      	beq.n	8003752 <HAL_TIM_IRQHandler+0x11a>
 80036ca:	f7ff ffb2 	bl	8003632 <HAL_TIM_IC_CaptureCallback>
 80036ce:	2300      	movs	r3, #0
 80036d0:	7723      	strb	r3, [r4, #28]
 80036d2:	07f0      	lsls	r0, r6, #31
 80036d4:	d508      	bpl.n	80036e8 <HAL_TIM_IRQHandler+0xb0>
 80036d6:	07e9      	lsls	r1, r5, #31
 80036d8:	d506      	bpl.n	80036e8 <HAL_TIM_IRQHandler+0xb0>
 80036da:	6823      	ldr	r3, [r4, #0]
 80036dc:	f06f 0201 	mvn.w	r2, #1
 80036e0:	611a      	str	r2, [r3, #16]
 80036e2:	4620      	mov	r0, r4
 80036e4:	f7fc ff08 	bl	80004f8 <HAL_TIM_PeriodElapsedCallback>
 80036e8:	0632      	lsls	r2, r6, #24
 80036ea:	d508      	bpl.n	80036fe <HAL_TIM_IRQHandler+0xc6>
 80036ec:	062b      	lsls	r3, r5, #24
 80036ee:	d506      	bpl.n	80036fe <HAL_TIM_IRQHandler+0xc6>
 80036f0:	6823      	ldr	r3, [r4, #0]
 80036f2:	f06f 0280 	mvn.w	r2, #128	@ 0x80
 80036f6:	611a      	str	r2, [r3, #16]
 80036f8:	4620      	mov	r0, r4
 80036fa:	f000 f98c 	bl	8003a16 <HAL_TIMEx_BreakCallback>
 80036fe:	0670      	lsls	r0, r6, #25
 8003700:	d508      	bpl.n	8003714 <HAL_TIM_IRQHandler+0xdc>
 8003702:	0669      	lsls	r1, r5, #25
 8003704:	d506      	bpl.n	8003714 <HAL_TIM_IRQHandler+0xdc>
 8003706:	6823      	ldr	r3, [r4, #0]
 8003708:	f06f 0240 	mvn.w	r2, #64	@ 0x40
 800370c:	611a      	str	r2, [r3, #16]
 800370e:	4620      	mov	r0, r4
 8003710:	f7ff ff91 	bl	8003636 <HAL_TIM_TriggerCallback>
 8003714:	06b2      	lsls	r2, r6, #26
 8003716:	d522      	bpl.n	800375e <HAL_TIM_IRQHandler+0x126>
 8003718:	06ab      	lsls	r3, r5, #26
 800371a:	d520      	bpl.n	800375e <HAL_TIM_IRQHandler+0x126>
 800371c:	6823      	ldr	r3, [r4, #0]
 800371e:	f06f 0220 	mvn.w	r2, #32
 8003722:	4620      	mov	r0, r4
 8003724:	611a      	str	r2, [r3, #16]
 8003726:	e8bd 4070 	ldmia.w	sp!, {r4, r5, r6, lr}
 800372a:	f000 b973 	b.w	8003a14 <HAL_TIMEx_CommutCallback>
 800372e:	f7ff ff7f 	bl	8003630 <HAL_TIM_OC_DelayElapsedCallback>
 8003732:	4620      	mov	r0, r4
 8003734:	f7ff ff7e 	bl	8003634 <HAL_TIM_PWM_PulseFinishedCallback>
 8003738:	e791      	b.n	800365e <HAL_TIM_IRQHandler+0x26>
 800373a:	f7ff ff79 	bl	8003630 <HAL_TIM_OC_DelayElapsedCallback>
 800373e:	4620      	mov	r0, r4
 8003740:	f7ff ff78 	bl	8003634 <HAL_TIM_PWM_PulseFinishedCallback>
 8003744:	e79e      	b.n	8003684 <HAL_TIM_IRQHandler+0x4c>
 8003746:	f7ff ff73 	bl	8003630 <HAL_TIM_OC_DelayElapsedCallback>
 800374a:	4620      	mov	r0, r4
 800374c:	f7ff ff72 	bl	8003634 <HAL_TIM_PWM_PulseFinishedCallback>
 8003750:	e7aa      	b.n	80036a8 <HAL_TIM_IRQHandler+0x70>
 8003752:	f7ff ff6d 	bl	8003630 <HAL_TIM_OC_DelayElapsedCallback>
 8003756:	4620      	mov	r0, r4
 8003758:	f7ff ff6c 	bl	8003634 <HAL_TIM_PWM_PulseFinishedCallback>
 800375c:	e7b7      	b.n	80036ce <HAL_TIM_IRQHandler+0x96>
 800375e:	bd70      	pop	{r4, r5, r6, pc}

08003760 <TIM_Base_SetConfig>:
 8003760:	4a27      	ldr	r2, [pc, #156]	@ (8003800 <TIM_Base_SetConfig+0xa0>)
 8003762:	6803      	ldr	r3, [r0, #0]
 8003764:	4290      	cmp	r0, r2
 8003766:	d00e      	beq.n	8003786 <TIM_Base_SetConfig+0x26>
 8003768:	f1b0 4f80 	cmp.w	r0, #1073741824	@ 0x40000000
 800376c:	d00b      	beq.n	8003786 <TIM_Base_SetConfig+0x26>
 800376e:	f5a2 427c 	sub.w	r2, r2, #64512	@ 0xfc00
 8003772:	4290      	cmp	r0, r2
 8003774:	d007      	beq.n	8003786 <TIM_Base_SetConfig+0x26>
 8003776:	f502 6280 	add.w	r2, r2, #1024	@ 0x400
 800377a:	4290      	cmp	r0, r2
 800377c:	d003      	beq.n	8003786 <TIM_Base_SetConfig+0x26>
 800377e:	f502 6280 	add.w	r2, r2, #1024	@ 0x400
 8003782:	4290      	cmp	r0, r2
 8003784:	d115      	bne.n	80037b2 <TIM_Base_SetConfig+0x52>
 8003786:	684a      	ldr	r2, [r1, #4]
 8003788:	f023 0370 	bic.w	r3, r3, #112	@ 0x70
 800378c:	4313      	orrs	r3, r2
 800378e:	4a1c      	ldr	r2, [pc, #112]	@ (8003800 <TIM_Base_SetConfig+0xa0>)
 8003790:	4290      	cmp	r0, r2
 8003792:	d019      	beq.n	80037c8 <TIM_Base_SetConfig+0x68>
 8003794:	f1b0 4f80 	cmp.w	r0, #1073741824	@ 0x40000000
 8003798:	d016      	beq.n	80037c8 <TIM_Base_SetConfig+0x68>
 800379a:	f5a2 427c 	sub.w	r2, r2, #64512	@ 0xfc00
 800379e:	4290      	cmp	r0, r2
 80037a0:	d012      	beq.n	80037c8 <TIM_Base_SetConfig+0x68>
 80037a2:	f502 6280 	add.w	r2, r2, #1024	@ 0x400
 80037a6:	4290      	cmp	r0, r2
 80037a8:	d00e      	beq.n	80037c8 <TIM_Base_SetConfig+0x68>
 80037aa:	f502 6280 	add.w	r2, r2, #1024	@ 0x400
 80037ae:	4290      	cmp	r0, r2
 80037b0:	d00a      	beq.n	80037c8 <TIM_Base_SetConfig+0x68>
 80037b2:	4a14      	ldr	r2, [pc, #80]	@ (8003804 <TIM_Base_SetConfig+0xa4>)
 80037b4:	4290      	cmp	r0, r2
 80037b6:	d007      	beq.n	80037c8 <TIM_Base_SetConfig+0x68>
 80037b8:	f502 6280 	add.w	r2, r2, #1024	@ 0x400
 80037bc:	4290      	cmp	r0, r2
 80037be:	d003      	beq.n	80037c8 <TIM_Base_SetConfig+0x68>
 80037c0:	f502 6280 	add.w	r2, r2, #1024	@ 0x400
 80037c4:	4290      	cmp	r0, r2
 80037c6:	d103      	bne.n	80037d0 <TIM_Base_SetConfig+0x70>
 80037c8:	68ca      	ldr	r2, [r1, #12]
 80037ca:	f423 7340 	bic.w	r3, r3, #768	@ 0x300
 80037ce:	4313      	orrs	r3, r2
 80037d0:	694a      	ldr	r2, [r1, #20]
 80037d2:	f023 0380 	bic.w	r3, r3, #128	@ 0x80
 80037d6:	4313      	orrs	r3, r2
 80037d8:	6003      	str	r3, [r0, #0]
 80037da:	688b      	ldr	r3, [r1, #8]
 80037dc:	62c3      	str	r3, [r0, #44]	@ 0x2c
 80037de:	680b      	ldr	r3, [r1, #0]
 80037e0:	6283      	str	r3, [r0, #40]	@ 0x28
 80037e2:	4b07      	ldr	r3, [pc, #28]	@ (8003800 <TIM_Base_SetConfig+0xa0>)
 80037e4:	4298      	cmp	r0, r3
 80037e6:	bf04      	itt	eq
 80037e8:	690b      	ldreq	r3, [r1, #16]
 80037ea:	6303      	streq	r3, [r0, #48]	@ 0x30
 80037ec:	2301      	movs	r3, #1
 80037ee:	6143      	str	r3, [r0, #20]
 80037f0:	6903      	ldr	r3, [r0, #16]
 80037f2:	07db      	lsls	r3, r3, #31
 80037f4:	bf42      	ittt	mi
 80037f6:	6903      	ldrmi	r3, [r0, #16]
 80037f8:	f023 0301 	bicmi.w	r3, r3, #1
 80037fc:	6103      	strmi	r3, [r0, #16]
 80037fe:	4770      	bx	lr
 8003800:	40010000 	.word	0x40010000
 8003804:	40014000 	.word	0x40014000

08003808 <HAL_TIM_Base_Init>:
 8003808:	b510      	push	{r4, lr}
 800380a:	4604      	mov	r4, r0
 800380c:	b330      	cbz	r0, 800385c <HAL_TIM_Base_Init+0x54>
 800380e:	f890 303d 	ldrb.w	r3, [r0, #61]	@ 0x3d
 8003812:	f003 02ff 	and.w	r2, r3, #255	@ 0xff
 8003816:	b91b      	cbnz	r3, 8003820 <HAL_TIM_Base_Init+0x18>
 8003818:	f880 203c 	strb.w	r2, [r0, #60]	@ 0x3c
 800381c:	f7fd f930 	bl	8000a80 <HAL_TIM_Base_MspInit>
 8003820:	2302      	movs	r3, #2
 8003822:	6820      	ldr	r0, [r4, #0]
 8003824:	f884 303d 	strb.w	r3, [r4, #61]	@ 0x3d
 8003828:	1d21      	adds	r1, r4, #4
 800382a:	f7ff ff99 	bl	8003760 <TIM_Base_SetConfig>
 800382e:	2301      	movs	r3, #1
 8003830:	f884 3046 	strb.w	r3, [r4, #70]	@ 0x46
 8003834:	2000      	movs	r0, #0
 8003836:	f884 303e 	strb.w	r3, [r4, #62]	@ 0x3e
 800383a:	f884 303f 	strb.w	r3, [r4, #63]	@ 0x3f
 800383e:	f884 3040 	strb.w	r3, [r4, #64]	@ 0x40
 8003842:	f884 3041 	strb.w	r3, [r4, #65]	@ 0x41
 8003846:	f884 3042 	strb.w	r3, [r4, #66]	@ 0x42
 800384a:	f884 3043 	strb.w	r3, [r4, #67]	@ 0x43
 800384e:	f884 3044 	strb.w	r3, [r4, #68]	@ 0x44
 8003852:	f884 3045 	strb.w	r3, [r4, #69]	@ 0x45
 8003856:	f884 303d 	strb.w	r3, [r4, #61]	@ 0x3d
 800385a:	bd10      	pop	{r4, pc}
 800385c:	2001      	movs	r0, #1
 800385e:	e7fc      	b.n	800385a <HAL_TIM_Base_Init+0x52>

08003860 <TIM_ETR_SetConfig>:
 8003860:	b510      	push	{r4, lr}
 8003862:	6884      	ldr	r4, [r0, #8]
 8003864:	430a      	orrs	r2, r1
 8003866:	f424 447f 	bic.w	r4, r4, #65280	@ 0xff00
 800386a:	ea42 2203 	orr.w	r2, r2, r3, lsl #8
 800386e:	4322      	orrs	r2, r4
 8003870:	6082      	str	r2, [r0, #8]
 8003872:	bd10      	pop	{r4, pc}

08003874 <HAL_TIM_ConfigClockSource>:
 8003874:	b538      	push	{r3, r4, r5, lr}
 8003876:	f890 303c 	ldrb.w	r3, [r0, #60]	@ 0x3c
 800387a:	2b01      	cmp	r3, #1
 800387c:	4604      	mov	r4, r0
 800387e:	f04f 0002 	mov.w	r0, #2
 8003882:	f000 808e 	beq.w	80039a2 <HAL_TIM_ConfigClockSource+0x12e>
 8003886:	f884 003d 	strb.w	r0, [r4, #61]	@ 0x3d
 800388a:	2201      	movs	r2, #1
 800388c:	6820      	ldr	r0, [r4, #0]
 800388e:	f884 203c 	strb.w	r2, [r4, #60]	@ 0x3c
 8003892:	6883      	ldr	r3, [r0, #8]
 8003894:	f423 437f 	bic.w	r3, r3, #65280	@ 0xff00
 8003898:	f023 0377 	bic.w	r3, r3, #119	@ 0x77
 800389c:	6083      	str	r3, [r0, #8]
 800389e:	680b      	ldr	r3, [r1, #0]
 80038a0:	2b60      	cmp	r3, #96	@ 0x60
 80038a2:	d04f      	beq.n	8003944 <HAL_TIM_ConfigClockSource+0xd0>
 80038a4:	d832      	bhi.n	800390c <HAL_TIM_ConfigClockSource+0x98>
 80038a6:	2b40      	cmp	r3, #64	@ 0x40
 80038a8:	d064      	beq.n	8003974 <HAL_TIM_ConfigClockSource+0x100>
 80038aa:	d816      	bhi.n	80038da <HAL_TIM_ConfigClockSource+0x66>
 80038ac:	2b20      	cmp	r3, #32
 80038ae:	d00d      	beq.n	80038cc <HAL_TIM_ConfigClockSource+0x58>
 80038b0:	d80a      	bhi.n	80038c8 <HAL_TIM_ConfigClockSource+0x54>
 80038b2:	f033 0110 	bics.w	r1, r3, #16
 80038b6:	d009      	beq.n	80038cc <HAL_TIM_ConfigClockSource+0x58>
 80038b8:	2301      	movs	r3, #1
 80038ba:	f884 303d 	strb.w	r3, [r4, #61]	@ 0x3d
 80038be:	2300      	movs	r3, #0
 80038c0:	f884 303c 	strb.w	r3, [r4, #60]	@ 0x3c
 80038c4:	4610      	mov	r0, r2
 80038c6:	bd38      	pop	{r3, r4, r5, pc}
 80038c8:	2b30      	cmp	r3, #48	@ 0x30
 80038ca:	d1f5      	bne.n	80038b8 <HAL_TIM_ConfigClockSource+0x44>
 80038cc:	6882      	ldr	r2, [r0, #8]
 80038ce:	f022 0270 	bic.w	r2, r2, #112	@ 0x70
 80038d2:	4313      	orrs	r3, r2
 80038d4:	f043 0307 	orr.w	r3, r3, #7
 80038d8:	e028      	b.n	800392c <HAL_TIM_ConfigClockSource+0xb8>
 80038da:	2b50      	cmp	r3, #80	@ 0x50
 80038dc:	d1ec      	bne.n	80038b8 <HAL_TIM_ConfigClockSource+0x44>
 80038de:	684a      	ldr	r2, [r1, #4]
 80038e0:	68cd      	ldr	r5, [r1, #12]
 80038e2:	6a01      	ldr	r1, [r0, #32]
 80038e4:	6a03      	ldr	r3, [r0, #32]
 80038e6:	f023 0301 	bic.w	r3, r3, #1
 80038ea:	6203      	str	r3, [r0, #32]
 80038ec:	6983      	ldr	r3, [r0, #24]
 80038ee:	f021 010a 	bic.w	r1, r1, #10
 80038f2:	f023 03f0 	bic.w	r3, r3, #240	@ 0xf0
 80038f6:	ea43 1305 	orr.w	r3, r3, r5, lsl #4
 80038fa:	430a      	orrs	r2, r1
 80038fc:	6183      	str	r3, [r0, #24]
 80038fe:	6202      	str	r2, [r0, #32]
 8003900:	6883      	ldr	r3, [r0, #8]
 8003902:	f023 0370 	bic.w	r3, r3, #112	@ 0x70
 8003906:	f043 0357 	orr.w	r3, r3, #87	@ 0x57
 800390a:	e00f      	b.n	800392c <HAL_TIM_ConfigClockSource+0xb8>
 800390c:	f5b3 5f80 	cmp.w	r3, #4096	@ 0x1000
 8003910:	d00d      	beq.n	800392e <HAL_TIM_ConfigClockSource+0xba>
 8003912:	f5b3 5f00 	cmp.w	r3, #8192	@ 0x2000
 8003916:	d00c      	beq.n	8003932 <HAL_TIM_ConfigClockSource+0xbe>
 8003918:	2b70      	cmp	r3, #112	@ 0x70
 800391a:	d1cd      	bne.n	80038b8 <HAL_TIM_ConfigClockSource+0x44>
 800391c:	68cb      	ldr	r3, [r1, #12]
 800391e:	e9d1 2101 	ldrd	r2, r1, [r1, #4]
 8003922:	f7ff ff9d 	bl	8003860 <TIM_ETR_SetConfig>
 8003926:	6883      	ldr	r3, [r0, #8]
 8003928:	f043 0377 	orr.w	r3, r3, #119	@ 0x77
 800392c:	6083      	str	r3, [r0, #8]
 800392e:	2200      	movs	r2, #0
 8003930:	e7c2      	b.n	80038b8 <HAL_TIM_ConfigClockSource+0x44>
 8003932:	68cb      	ldr	r3, [r1, #12]
 8003934:	e9d1 2101 	ldrd	r2, r1, [r1, #4]
 8003938:	f7ff ff92 	bl	8003860 <TIM_ETR_SetConfig>
 800393c:	6883      	ldr	r3, [r0, #8]
 800393e:	f443 4380 	orr.w	r3, r3, #16384	@ 0x4000
 8003942:	e7f3      	b.n	800392c <HAL_TIM_ConfigClockSource+0xb8>
 8003944:	6a03      	ldr	r3, [r0, #32]
 8003946:	6a02      	ldr	r2, [r0, #32]
 8003948:	684d      	ldr	r5, [r1, #4]
 800394a:	68c9      	ldr	r1, [r1, #12]
 800394c:	f022 0210 	bic.w	r2, r2, #16
 8003950:	6202      	str	r2, [r0, #32]
 8003952:	6982      	ldr	r2, [r0, #24]
 8003954:	f023 03a0 	bic.w	r3, r3, #160	@ 0xa0
 8003958:	f422 4270 	bic.w	r2, r2, #61440	@ 0xf000
 800395c:	ea43 1305 	orr.w	r3, r3, r5, lsl #4
 8003960:	ea42 3201 	orr.w	r2, r2, r1, lsl #12
 8003964:	6182      	str	r2, [r0, #24]
 8003966:	6203      	str	r3, [r0, #32]
 8003968:	6883      	ldr	r3, [r0, #8]
 800396a:	f023 0370 	bic.w	r3, r3, #112	@ 0x70
 800396e:	f043 0367 	orr.w	r3, r3, #103	@ 0x67
 8003972:	e7db      	b.n	800392c <HAL_TIM_ConfigClockSource+0xb8>
 8003974:	684a      	ldr	r2, [r1, #4]
 8003976:	68cd      	ldr	r5, [r1, #12]
 8003978:	6a01      	ldr	r1, [r0, #32]
 800397a:	6a03      	ldr	r3, [r0, #32]
 800397c:	f023 0301 	bic.w	r3, r3, #1
 8003980:	6203      	str	r3, [r0, #32]
 8003982:	6983      	ldr	r3, [r0, #24]
 8003984:	f021 010a 	bic.w	r1, r1, #10
 8003988:	f023 03f0 	bic.w	r3, r3, #240	@ 0xf0
 800398c:	ea43 1305 	orr.w	r3, r3, r5, lsl #4
 8003990:	430a      	orrs	r2, r1
 8003992:	6183      	str	r3, [r0, #24]
 8003994:	6202      	str	r2, [r0, #32]
 8003996:	6883      	ldr	r3, [r0, #8]
 8003998:	f023 0370 	bic.w	r3, r3, #112	@ 0x70
 800399c:	f043 0347 	orr.w	r3, r3, #71	@ 0x47
 80039a0:	e7c4      	b.n	800392c <HAL_TIM_ConfigClockSource+0xb8>
 80039a2:	4602      	mov	r2, r0
 80039a4:	e78e      	b.n	80038c4 <HAL_TIM_ConfigClockSource+0x50>
	...

080039a8 <HAL_TIMEx_MasterConfigSynchronization>:
 80039a8:	b530      	push	{r4, r5, lr}
 80039aa:	f890 303c 	ldrb.w	r3, [r0, #60]	@ 0x3c
 80039ae:	2b01      	cmp	r3, #1
 80039b0:	4602      	mov	r2, r0
 80039b2:	f04f 0002 	mov.w	r0, #2
 80039b6:	d02a      	beq.n	8003a0e <HAL_TIMEx_MasterConfigSynchronization+0x66>
 80039b8:	6813      	ldr	r3, [r2, #0]
 80039ba:	f882 003d 	strb.w	r0, [r2, #61]	@ 0x3d
 80039be:	685c      	ldr	r4, [r3, #4]
 80039c0:	680d      	ldr	r5, [r1, #0]
 80039c2:	6898      	ldr	r0, [r3, #8]
 80039c4:	f024 0470 	bic.w	r4, r4, #112	@ 0x70
 80039c8:	432c      	orrs	r4, r5
 80039ca:	605c      	str	r4, [r3, #4]
 80039cc:	4c10      	ldr	r4, [pc, #64]	@ (8003a10 <HAL_TIMEx_MasterConfigSynchronization+0x68>)
 80039ce:	42a3      	cmp	r3, r4
 80039d0:	d012      	beq.n	80039f8 <HAL_TIMEx_MasterConfigSynchronization+0x50>
 80039d2:	f1b3 4f80 	cmp.w	r3, #1073741824	@ 0x40000000
 80039d6:	d00f      	beq.n	80039f8 <HAL_TIMEx_MasterConfigSynchronization+0x50>
 80039d8:	f5a4 447c 	sub.w	r4, r4, #64512	@ 0xfc00
 80039dc:	42a3      	cmp	r3, r4
 80039de:	d00b      	beq.n	80039f8 <HAL_TIMEx_MasterConfigSynchronization+0x50>
 80039e0:	f504 6480 	add.w	r4, r4, #1024	@ 0x400
 80039e4:	42a3      	cmp	r3, r4
 80039e6:	d007      	beq.n	80039f8 <HAL_TIMEx_MasterConfigSynchronization+0x50>
 80039e8:	f504 6480 	add.w	r4, r4, #1024	@ 0x400
 80039ec:	42a3      	cmp	r3, r4
 80039ee:	d003      	beq.n	80039f8 <HAL_TIMEx_MasterConfigSynchronization+0x50>
 80039f0:	f504 349a 	add.w	r4, r4, #78848	@ 0x13400
 80039f4:	42a3      	cmp	r3, r4
 80039f6:	d104      	bne.n	8003a02 <HAL_TIMEx_MasterConfigSynchronization+0x5a>
 80039f8:	6849      	ldr	r1, [r1, #4]
 80039fa:	f020 0080 	bic.w	r0, r0, #128	@ 0x80
 80039fe:	4301      	orrs	r1, r0
 8003a00:	6099      	str	r1, [r3, #8]
 8003a02:	2301      	movs	r3, #1
 8003a04:	2000      	movs	r0, #0
 8003a06:	f882 303d 	strb.w	r3, [r2, #61]	@ 0x3d
 8003a0a:	f882 003c 	strb.w	r0, [r2, #60]	@ 0x3c
 8003a0e:	bd30      	pop	{r4, r5, pc}
 8003a10:	40010000 	.word	0x40010000

08003a14 <HAL_TIMEx_CommutCallback>:
 8003a14:	4770      	bx	lr

08003a16 <HAL_TIMEx_BreakCallback>:
 8003a16:	4770      	bx	lr

08003a18 <UART_EndRxTransfer>:
 8003a18:	6802      	ldr	r2, [r0, #0]
 8003a1a:	f102 030c 	add.w	r3, r2, #12
 8003a1e:	e853 3f00 	ldrex	r3, [r3]
 8003a22:	f423 7390 	bic.w	r3, r3, #288	@ 0x120
 8003a26:	320c      	adds	r2, #12
 8003a28:	e842 3100 	strex	r1, r3, [r2]
 8003a2c:	6802      	ldr	r2, [r0, #0]
 8003a2e:	2900      	cmp	r1, #0
 8003a30:	d1f2      	bne.n	8003a18 <UART_EndRxTransfer>
 8003a32:	f102 0314 	add.w	r3, r2, #20
 8003a36:	e853 3f00 	ldrex	r3, [r3]
 8003a3a:	f023 0301 	bic.w	r3, r3, #1
 8003a3e:	f102 0c14 	add.w	ip, r2, #20
 8003a42:	e84c 3100 	strex	r1, r3, [ip]
 8003a46:	2900      	cmp	r1, #0
 8003a48:	d1f3      	bne.n	8003a32 <UART_EndRxTransfer+0x1a>
 8003a4a:	6b03      	ldr	r3, [r0, #48]	@ 0x30
 8003a4c:	2b01      	cmp	r3, #1
 8003a4e:	d10b      	bne.n	8003a68 <UART_EndRxTransfer+0x50>
 8003a50:	f102 030c 	add.w	r3, r2, #12
 8003a54:	e853 3f00 	ldrex	r3, [r3]
 8003a58:	f023 0310 	bic.w	r3, r3, #16
 8003a5c:	f102 0c0c 	add.w	ip, r2, #12
 8003a60:	e84c 3100 	strex	r1, r3, [ip]
 8003a64:	2900      	cmp	r1, #0
 8003a66:	d1f3      	bne.n	8003a50 <UART_EndRxTransfer+0x38>
 8003a68:	2320      	movs	r3, #32
 8003a6a:	f880 3042 	strb.w	r3, [r0, #66]	@ 0x42
 8003a6e:	2300      	movs	r3, #0
 8003a70:	6303      	str	r3, [r0, #48]	@ 0x30
 8003a72:	4770      	bx	lr

08003a74 <UART_SetConfig>:
 8003a74:	6802      	ldr	r2, [r0, #0]
 8003a76:	68c1      	ldr	r1, [r0, #12]
 8003a78:	b538      	push	{r3, r4, r5, lr}
 8003a7a:	6913      	ldr	r3, [r2, #16]
 8003a7c:	f423 5340 	bic.w	r3, r3, #12288	@ 0x3000
 8003a80:	430b      	orrs	r3, r1
 8003a82:	6113      	str	r3, [r2, #16]
 8003a84:	4605      	mov	r5, r0
 8003a86:	6883      	ldr	r3, [r0, #8]
 8003a88:	6900      	ldr	r0, [r0, #16]
 8003a8a:	68d1      	ldr	r1, [r2, #12]
 8003a8c:	4303      	orrs	r3, r0
 8003a8e:	6968      	ldr	r0, [r5, #20]
 8003a90:	4303      	orrs	r3, r0
 8003a92:	69e8      	ldr	r0, [r5, #28]
 8003a94:	f421 4116 	bic.w	r1, r1, #38400	@ 0x9600
 8003a98:	f021 010c 	bic.w	r1, r1, #12
 8003a9c:	4303      	orrs	r3, r0
 8003a9e:	430b      	orrs	r3, r1
 8003aa0:	60d3      	str	r3, [r2, #12]
 8003aa2:	6953      	ldr	r3, [r2, #20]
 8003aa4:	69a9      	ldr	r1, [r5, #24]
 8003aa6:	f423 7340 	bic.w	r3, r3, #768	@ 0x300
 8003aaa:	430b      	orrs	r3, r1
 8003aac:	6153      	str	r3, [r2, #20]
 8003aae:	4b1f      	ldr	r3, [pc, #124]	@ (8003b2c <UART_SetConfig+0xb8>)
 8003ab0:	429a      	cmp	r2, r3
 8003ab2:	d003      	beq.n	8003abc <UART_SetConfig+0x48>
 8003ab4:	f503 6380 	add.w	r3, r3, #1024	@ 0x400
 8003ab8:	429a      	cmp	r2, r3
 8003aba:	d124      	bne.n	8003b06 <UART_SetConfig+0x92>
 8003abc:	f7ff fd5e 	bl	800357c <HAL_RCC_GetPCLK2Freq>
 8003ac0:	69ea      	ldr	r2, [r5, #28]
 8003ac2:	2119      	movs	r1, #25
 8003ac4:	f5b2 4f00 	cmp.w	r2, #32768	@ 0x8000
 8003ac8:	e9d5 4300 	ldrd	r4, r3, [r5]
 8003acc:	fba0 0101 	umull	r0, r1, r0, r1
 8003ad0:	d11c      	bne.n	8003b0c <UART_SetConfig+0x98>
 8003ad2:	18da      	adds	r2, r3, r3
 8003ad4:	f04f 0500 	mov.w	r5, #0
 8003ad8:	eb45 0305 	adc.w	r3, r5, r5
 8003adc:	f7fc fb7c 	bl	80001d8 <__aeabi_uldivmod>
 8003ae0:	2264      	movs	r2, #100	@ 0x64
 8003ae2:	fbb0 f1f2 	udiv	r1, r0, r2
 8003ae6:	fb02 0311 	mls	r3, r2, r1, r0
 8003aea:	00db      	lsls	r3, r3, #3
 8003aec:	3332      	adds	r3, #50	@ 0x32
 8003aee:	fbb3 f3f2 	udiv	r3, r3, r2
 8003af2:	f003 0207 	and.w	r2, r3, #7
 8003af6:	005b      	lsls	r3, r3, #1
 8003af8:	eb02 1201 	add.w	r2, r2, r1, lsl #4
 8003afc:	f403 73f8 	and.w	r3, r3, #496	@ 0x1f0
 8003b00:	4413      	add	r3, r2
 8003b02:	60a3      	str	r3, [r4, #8]
 8003b04:	bd38      	pop	{r3, r4, r5, pc}
 8003b06:	f7ff fd29 	bl	800355c <HAL_RCC_GetPCLK1Freq>
 8003b0a:	e7d9      	b.n	8003ac0 <UART_SetConfig+0x4c>
 8003b0c:	009a      	lsls	r2, r3, #2
 8003b0e:	0f9b      	lsrs	r3, r3, #30
 8003b10:	f7fc fb62 	bl	80001d8 <__aeabi_uldivmod>
 8003b14:	2264      	movs	r2, #100	@ 0x64
 8003b16:	fbb0 f1f2 	udiv	r1, r0, r2
 8003b1a:	fb02 0311 	mls	r3, r2, r1, r0
 8003b1e:	011b      	lsls	r3, r3, #4
 8003b20:	3332      	adds	r3, #50	@ 0x32
 8003b22:	fbb3 f3f2 	udiv	r3, r3, r2
 8003b26:	eb03 1301 	add.w	r3, r3, r1, lsl #4
 8003b2a:	e7ea      	b.n	8003b02 <UART_SetConfig+0x8e>
 8003b2c:	40011000 	.word	0x40011000

08003b30 <HAL_UART_Init>:
 8003b30:	b510      	push	{r4, lr}
 8003b32:	4604      	mov	r4, r0
 8003b34:	b348      	cbz	r0, 8003b8a <HAL_UART_Init+0x5a>
 8003b36:	f890 3041 	ldrb.w	r3, [r0, #65]	@ 0x41
 8003b3a:	f003 02ff 	and.w	r2, r3, #255	@ 0xff
 8003b3e:	b91b      	cbnz	r3, 8003b48 <HAL_UART_Init+0x18>
 8003b40:	f880 2040 	strb.w	r2, [r0, #64]	@ 0x40
 8003b44:	f7fd f804 	bl	8000b50 <HAL_UART_MspInit>
 8003b48:	6822      	ldr	r2, [r4, #0]
 8003b4a:	2324      	movs	r3, #36	@ 0x24
 8003b4c:	f884 3041 	strb.w	r3, [r4, #65]	@ 0x41
 8003b50:	68d3      	ldr	r3, [r2, #12]
 8003b52:	f423 5300 	bic.w	r3, r3, #8192	@ 0x2000
 8003b56:	60d3      	str	r3, [r2, #12]
 8003b58:	4620      	mov	r0, r4
 8003b5a:	f7ff ff8b 	bl	8003a74 <UART_SetConfig>
 8003b5e:	6823      	ldr	r3, [r4, #0]
 8003b60:	691a      	ldr	r2, [r3, #16]
 8003b62:	f422 4290 	bic.w	r2, r2, #18432	@ 0x4800
 8003b66:	611a      	str	r2, [r3, #16]
 8003b68:	695a      	ldr	r2, [r3, #20]
 8003b6a:	f022 022a 	bic.w	r2, r2, #42	@ 0x2a
 8003b6e:	615a      	str	r2, [r3, #20]
 8003b70:	68da      	ldr	r2, [r3, #12]
 8003b72:	f442 5200 	orr.w	r2, r2, #8192	@ 0x2000
 8003b76:	60da      	str	r2, [r3, #12]
 8003b78:	2000      	movs	r0, #0
 8003b7a:	2320      	movs	r3, #32
 8003b7c:	6460      	str	r0, [r4, #68]	@ 0x44
 8003b7e:	f884 3041 	strb.w	r3, [r4, #65]	@ 0x41
 8003b82:	f884 3042 	strb.w	r3, [r4, #66]	@ 0x42
 8003b86:	6360      	str	r0, [r4, #52]	@ 0x34
 8003b88:	bd10      	pop	{r4, pc}
 8003b8a:	2001      	movs	r0, #1
 8003b8c:	e7fc      	b.n	8003b88 <HAL_UART_Init+0x58>
	...

08003b90 <HAL_UART_Transmit_DMA>:
 8003b90:	b538      	push	{r3, r4, r5, lr}
 8003b92:	4604      	mov	r4, r0
 8003b94:	4613      	mov	r3, r2
 8003b96:	f894 2041 	ldrb.w	r2, [r4, #65]	@ 0x41
 8003b9a:	2a20      	cmp	r2, #32
 8003b9c:	d127      	bne.n	8003bee <HAL_UART_Transmit_DMA+0x5e>
 8003b9e:	b341      	cbz	r1, 8003bf2 <HAL_UART_Transmit_DMA+0x62>
 8003ba0:	b33b      	cbz	r3, 8003bf2 <HAL_UART_Transmit_DMA+0x62>
 8003ba2:	2200      	movs	r2, #0
 8003ba4:	2021      	movs	r0, #33	@ 0x21
 8003ba6:	84e3      	strh	r3, [r4, #38]	@ 0x26
 8003ba8:	6462      	str	r2, [r4, #68]	@ 0x44
 8003baa:	f884 0041 	strb.w	r0, [r4, #65]	@ 0x41
 8003bae:	6ba0      	ldr	r0, [r4, #56]	@ 0x38
 8003bb0:	4d11      	ldr	r5, [pc, #68]	@ (8003bf8 <HAL_UART_Transmit_DMA+0x68>)
 8003bb2:	84a3      	strh	r3, [r4, #36]	@ 0x24
 8003bb4:	6221      	str	r1, [r4, #32]
 8003bb6:	63c5      	str	r5, [r0, #60]	@ 0x3c
 8003bb8:	4d10      	ldr	r5, [pc, #64]	@ (8003bfc <HAL_UART_Transmit_DMA+0x6c>)
 8003bba:	6405      	str	r5, [r0, #64]	@ 0x40
 8003bbc:	4d10      	ldr	r5, [pc, #64]	@ (8003c00 <HAL_UART_Transmit_DMA+0x70>)
 8003bbe:	e9c0 5213 	strd	r5, r2, [r0, #76]	@ 0x4c
 8003bc2:	6822      	ldr	r2, [r4, #0]
 8003bc4:	3204      	adds	r2, #4
 8003bc6:	f7fd ff67 	bl	8001a98 <HAL_DMA_Start_IT>
 8003bca:	6823      	ldr	r3, [r4, #0]
 8003bcc:	f06f 0240 	mvn.w	r2, #64	@ 0x40
 8003bd0:	601a      	str	r2, [r3, #0]
 8003bd2:	6822      	ldr	r2, [r4, #0]
 8003bd4:	f102 0314 	add.w	r3, r2, #20
 8003bd8:	e853 3f00 	ldrex	r3, [r3]
 8003bdc:	f043 0380 	orr.w	r3, r3, #128	@ 0x80
 8003be0:	f102 0114 	add.w	r1, r2, #20
 8003be4:	e841 3000 	strex	r0, r3, [r1]
 8003be8:	2800      	cmp	r0, #0
 8003bea:	d1f3      	bne.n	8003bd4 <HAL_UART_Transmit_DMA+0x44>
 8003bec:	bd38      	pop	{r3, r4, r5, pc}
 8003bee:	2002      	movs	r0, #2
 8003bf0:	e7fc      	b.n	8003bec <HAL_UART_Transmit_DMA+0x5c>
 8003bf2:	2001      	movs	r0, #1
 8003bf4:	e7fa      	b.n	8003bec <HAL_UART_Transmit_DMA+0x5c>
 8003bf6:	bf00      	nop
 8003bf8:	08003c07 	.word	0x08003c07
 8003bfc:	08003c55 	.word	0x08003c55
 8003c00:	08003c61 	.word	0x08003c61

08003c04 <HAL_UART_TxCpltCallback>:
 8003c04:	4770      	bx	lr

08003c06 <UART_DMATransmitCplt>:
 8003c06:	b508      	push	{r3, lr}
 8003c08:	4603      	mov	r3, r0
 8003c0a:	6b80      	ldr	r0, [r0, #56]	@ 0x38
 8003c0c:	681b      	ldr	r3, [r3, #0]
 8003c0e:	681b      	ldr	r3, [r3, #0]
 8003c10:	f413 7380 	ands.w	r3, r3, #256	@ 0x100
 8003c14:	d11a      	bne.n	8003c4c <UART_DMATransmitCplt+0x46>
 8003c16:	84c3      	strh	r3, [r0, #38]	@ 0x26
 8003c18:	6802      	ldr	r2, [r0, #0]
 8003c1a:	f102 0314 	add.w	r3, r2, #20
 8003c1e:	e853 3f00 	ldrex	r3, [r3]
 8003c22:	f023 0380 	bic.w	r3, r3, #128	@ 0x80
 8003c26:	3214      	adds	r2, #20
 8003c28:	e842 3100 	strex	r1, r3, [r2]
 8003c2c:	6802      	ldr	r2, [r0, #0]
 8003c2e:	2900      	cmp	r1, #0
 8003c30:	d1f2      	bne.n	8003c18 <UART_DMATransmitCplt+0x12>
 8003c32:	f102 030c 	add.w	r3, r2, #12
 8003c36:	e853 3f00 	ldrex	r3, [r3]
 8003c3a:	f043 0340 	orr.w	r3, r3, #64	@ 0x40
 8003c3e:	f102 000c 	add.w	r0, r2, #12
 8003c42:	e840 3100 	strex	r1, r3, [r0]
 8003c46:	2900      	cmp	r1, #0
 8003c48:	d1f3      	bne.n	8003c32 <UART_DMATransmitCplt+0x2c>
 8003c4a:	bd08      	pop	{r3, pc}
 8003c4c:	f7ff ffda 	bl	8003c04 <HAL_UART_TxCpltCallback>
 8003c50:	e7fb      	b.n	8003c4a <UART_DMATransmitCplt+0x44>

08003c52 <HAL_UART_TxHalfCpltCallback>:
 8003c52:	4770      	bx	lr

08003c54 <UART_DMATxHalfCplt>:
 8003c54:	b508      	push	{r3, lr}
 8003c56:	6b80      	ldr	r0, [r0, #56]	@ 0x38
 8003c58:	f7ff fffb 	bl	8003c52 <HAL_UART_TxHalfCpltCallback>
 8003c5c:	bd08      	pop	{r3, pc}

08003c5e <HAL_UART_ErrorCallback>:
 8003c5e:	4770      	bx	lr

08003c60 <UART_DMAError>:
 8003c60:	b508      	push	{r3, lr}
 8003c62:	6b80      	ldr	r0, [r0, #56]	@ 0x38
 8003c64:	6803      	ldr	r3, [r0, #0]
 8003c66:	695a      	ldr	r2, [r3, #20]
 8003c68:	f890 1041 	ldrb.w	r1, [r0, #65]	@ 0x41
 8003c6c:	2921      	cmp	r1, #33	@ 0x21
 8003c6e:	d112      	bne.n	8003c96 <UART_DMAError+0x36>
 8003c70:	0612      	lsls	r2, r2, #24
 8003c72:	d510      	bpl.n	8003c96 <UART_DMAError+0x36>
 8003c74:	2200      	movs	r2, #0
 8003c76:	84c2      	strh	r2, [r0, #38]	@ 0x26
 8003c78:	f103 020c 	add.w	r2, r3, #12
 8003c7c:	e852 2f00 	ldrex	r2, [r2]
 8003c80:	f022 02c0 	bic.w	r2, r2, #192	@ 0xc0
 8003c84:	f103 0c0c 	add.w	ip, r3, #12
 8003c88:	e84c 2100 	strex	r1, r2, [ip]
 8003c8c:	2900      	cmp	r1, #0
 8003c8e:	d1f3      	bne.n	8003c78 <UART_DMAError+0x18>
 8003c90:	2220      	movs	r2, #32
 8003c92:	f880 2041 	strb.w	r2, [r0, #65]	@ 0x41
 8003c96:	695b      	ldr	r3, [r3, #20]
 8003c98:	f890 2042 	ldrb.w	r2, [r0, #66]	@ 0x42
 8003c9c:	2a22      	cmp	r2, #34	@ 0x22
 8003c9e:	d105      	bne.n	8003cac <UART_DMAError+0x4c>
 8003ca0:	065b      	lsls	r3, r3, #25
 8003ca2:	d503      	bpl.n	8003cac <UART_DMAError+0x4c>
 8003ca4:	2300      	movs	r3, #0
 8003ca6:	85c3      	strh	r3, [r0, #46]	@ 0x2e
 8003ca8:	f7ff feb6 	bl	8003a18 <UART_EndRxTransfer>
 8003cac:	6c43      	ldr	r3, [r0, #68]	@ 0x44
 8003cae:	f043 0310 	orr.w	r3, r3, #16
 8003cb2:	6443      	str	r3, [r0, #68]	@ 0x44
 8003cb4:	f7ff ffd3 	bl	8003c5e <HAL_UART_ErrorCallback>
 8003cb8:	bd08      	pop	{r3, pc}

08003cba <UART_DMAAbortOnError>:
 8003cba:	b508      	push	{r3, lr}
 8003cbc:	6b80      	ldr	r0, [r0, #56]	@ 0x38
 8003cbe:	2300      	movs	r3, #0
 8003cc0:	85c3      	strh	r3, [r0, #46]	@ 0x2e
 8003cc2:	84c3      	strh	r3, [r0, #38]	@ 0x26
 8003cc4:	f7ff ffcb 	bl	8003c5e <HAL_UART_ErrorCallback>
 8003cc8:	bd08      	pop	{r3, pc}

08003cca <HAL_UARTEx_RxEventCallback>:
 8003cca:	4770      	bx	lr

08003ccc <UART_Receive_IT.isra.0>:
 8003ccc:	f890 3042 	ldrb.w	r3, [r0, #66]	@ 0x42
 8003cd0:	2b22      	cmp	r3, #34	@ 0x22
 8003cd2:	b507      	push	{r0, r1, r2, lr}
 8003cd4:	d142      	bne.n	8003d5c <UART_Receive_IT.isra.0+0x90>
 8003cd6:	6881      	ldr	r1, [r0, #8]
 8003cd8:	6802      	ldr	r2, [r0, #0]
 8003cda:	6a83      	ldr	r3, [r0, #40]	@ 0x28
 8003cdc:	f5b1 5f80 	cmp.w	r1, #4096	@ 0x1000
 8003ce0:	d13f      	bne.n	8003d62 <UART_Receive_IT.isra.0+0x96>
 8003ce2:	6901      	ldr	r1, [r0, #16]
 8003ce4:	2900      	cmp	r1, #0
 8003ce6:	d13f      	bne.n	8003d68 <UART_Receive_IT.isra.0+0x9c>
 8003ce8:	6852      	ldr	r2, [r2, #4]
 8003cea:	f3c2 0208 	ubfx	r2, r2, #0, #9
 8003cee:	f823 2b02 	strh.w	r2, [r3], #2
 8003cf2:	6283      	str	r3, [r0, #40]	@ 0x28
 8003cf4:	8dc3      	ldrh	r3, [r0, #46]	@ 0x2e
 8003cf6:	3b01      	subs	r3, #1
 8003cf8:	b29b      	uxth	r3, r3
 8003cfa:	85c3      	strh	r3, [r0, #46]	@ 0x2e
 8003cfc:	2b00      	cmp	r3, #0
 8003cfe:	d12d      	bne.n	8003d5c <UART_Receive_IT.isra.0+0x90>
 8003d00:	6802      	ldr	r2, [r0, #0]
 8003d02:	68d1      	ldr	r1, [r2, #12]
 8003d04:	f021 0120 	bic.w	r1, r1, #32
 8003d08:	60d1      	str	r1, [r2, #12]
 8003d0a:	68d1      	ldr	r1, [r2, #12]
 8003d0c:	f421 7180 	bic.w	r1, r1, #256	@ 0x100
 8003d10:	60d1      	str	r1, [r2, #12]
 8003d12:	6951      	ldr	r1, [r2, #20]
 8003d14:	f021 0101 	bic.w	r1, r1, #1
 8003d18:	6151      	str	r1, [r2, #20]
 8003d1a:	2220      	movs	r2, #32
 8003d1c:	f880 2042 	strb.w	r2, [r0, #66]	@ 0x42
 8003d20:	6343      	str	r3, [r0, #52]	@ 0x34
 8003d22:	6b02      	ldr	r2, [r0, #48]	@ 0x30
 8003d24:	2a01      	cmp	r2, #1
 8003d26:	6802      	ldr	r2, [r0, #0]
 8003d28:	d128      	bne.n	8003d7c <UART_Receive_IT.isra.0+0xb0>
 8003d2a:	6303      	str	r3, [r0, #48]	@ 0x30
 8003d2c:	f102 030c 	add.w	r3, r2, #12
 8003d30:	e853 3f00 	ldrex	r3, [r3]
 8003d34:	f023 0310 	bic.w	r3, r3, #16
 8003d38:	f102 0c0c 	add.w	ip, r2, #12
 8003d3c:	e84c 3100 	strex	r1, r3, [ip]
 8003d40:	2900      	cmp	r1, #0
 8003d42:	d1f3      	bne.n	8003d2c <UART_Receive_IT.isra.0+0x60>
 8003d44:	6813      	ldr	r3, [r2, #0]
 8003d46:	06db      	lsls	r3, r3, #27
 8003d48:	d505      	bpl.n	8003d56 <UART_Receive_IT.isra.0+0x8a>
 8003d4a:	9101      	str	r1, [sp, #4]
 8003d4c:	6813      	ldr	r3, [r2, #0]
 8003d4e:	9301      	str	r3, [sp, #4]
 8003d50:	6853      	ldr	r3, [r2, #4]
 8003d52:	9301      	str	r3, [sp, #4]
 8003d54:	9b01      	ldr	r3, [sp, #4]
 8003d56:	8d81      	ldrh	r1, [r0, #44]	@ 0x2c
 8003d58:	f7ff ffb7 	bl	8003cca <HAL_UARTEx_RxEventCallback>
 8003d5c:	b003      	add	sp, #12
 8003d5e:	f85d fb04 	ldr.w	pc, [sp], #4
 8003d62:	b939      	cbnz	r1, 8003d74 <UART_Receive_IT.isra.0+0xa8>
 8003d64:	6901      	ldr	r1, [r0, #16]
 8003d66:	b929      	cbnz	r1, 8003d74 <UART_Receive_IT.isra.0+0xa8>
 8003d68:	6852      	ldr	r2, [r2, #4]
 8003d6a:	b2d2      	uxtb	r2, r2
 8003d6c:	701a      	strb	r2, [r3, #0]
 8003d6e:	6a83      	ldr	r3, [r0, #40]	@ 0x28
 8003d70:	3301      	adds	r3, #1
 8003d72:	e7be      	b.n	8003cf2 <UART_Receive_IT.isra.0+0x26>
 8003d74:	6852      	ldr	r2, [r2, #4]
 8003d76:	f002 027f 	and.w	r2, r2, #127	@ 0x7f
 8003d7a:	e7f7      	b.n	8003d6c <UART_Receive_IT.isra.0+0xa0>
 8003d7c:	f7fc ffb8 	bl	8000cf0 <HAL_UART_RxCpltCallback>
 8003d80:	e7ec      	b.n	8003d5c <UART_Receive_IT.isra.0+0x90>
	...

08003d84 <HAL_UART_IRQHandler>:
 8003d84:	6803      	ldr	r3, [r0, #0]
 8003d86:	681a      	ldr	r2, [r3, #0]
 8003d88:	b573      	push	{r0, r1, r4, r5, r6, lr}
 8003d8a:	0716      	lsls	r6, r2, #28
 8003d8c:	68d9      	ldr	r1, [r3, #12]
 8003d8e:	695d      	ldr	r5, [r3, #20]
 8003d90:	4604      	mov	r4, r0
 8003d92:	d108      	bne.n	8003da6 <HAL_UART_IRQHandler+0x22>
 8003d94:	0696      	lsls	r6, r2, #26
 8003d96:	d568      	bpl.n	8003e6a <HAL_UART_IRQHandler+0xe6>
 8003d98:	068d      	lsls	r5, r1, #26
 8003d9a:	d566      	bpl.n	8003e6a <HAL_UART_IRQHandler+0xe6>
 8003d9c:	b002      	add	sp, #8
 8003d9e:	e8bd 4070 	ldmia.w	sp!, {r4, r5, r6, lr}
 8003da2:	f7ff bf93 	b.w	8003ccc <UART_Receive_IT.isra.0>
 8003da6:	f005 0001 	and.w	r0, r5, #1
 8003daa:	f401 7590 	and.w	r5, r1, #288	@ 0x120
 8003dae:	4305      	orrs	r5, r0
 8003db0:	d05b      	beq.n	8003e6a <HAL_UART_IRQHandler+0xe6>
 8003db2:	07d6      	lsls	r6, r2, #31
 8003db4:	d505      	bpl.n	8003dc2 <HAL_UART_IRQHandler+0x3e>
 8003db6:	05cd      	lsls	r5, r1, #23
 8003db8:	bf42      	ittt	mi
 8003dba:	6c63      	ldrmi	r3, [r4, #68]	@ 0x44
 8003dbc:	f043 0301 	orrmi.w	r3, r3, #1
 8003dc0:	6463      	strmi	r3, [r4, #68]	@ 0x44
 8003dc2:	0753      	lsls	r3, r2, #29
 8003dc4:	d504      	bpl.n	8003dd0 <HAL_UART_IRQHandler+0x4c>
 8003dc6:	b118      	cbz	r0, 8003dd0 <HAL_UART_IRQHandler+0x4c>
 8003dc8:	6c63      	ldr	r3, [r4, #68]	@ 0x44
 8003dca:	f043 0302 	orr.w	r3, r3, #2
 8003dce:	6463      	str	r3, [r4, #68]	@ 0x44
 8003dd0:	0796      	lsls	r6, r2, #30
 8003dd2:	d504      	bpl.n	8003dde <HAL_UART_IRQHandler+0x5a>
 8003dd4:	b118      	cbz	r0, 8003dde <HAL_UART_IRQHandler+0x5a>
 8003dd6:	6c63      	ldr	r3, [r4, #68]	@ 0x44
 8003dd8:	f043 0304 	orr.w	r3, r3, #4
 8003ddc:	6463      	str	r3, [r4, #68]	@ 0x44
 8003dde:	0715      	lsls	r5, r2, #28
 8003de0:	d507      	bpl.n	8003df2 <HAL_UART_IRQHandler+0x6e>
 8003de2:	f001 0320 	and.w	r3, r1, #32
 8003de6:	4303      	orrs	r3, r0
 8003de8:	bf1e      	ittt	ne
 8003dea:	6c63      	ldrne	r3, [r4, #68]	@ 0x44
 8003dec:	f043 0308 	orrne.w	r3, r3, #8
 8003df0:	6463      	strne	r3, [r4, #68]	@ 0x44
 8003df2:	6c63      	ldr	r3, [r4, #68]	@ 0x44
 8003df4:	2b00      	cmp	r3, #0
 8003df6:	d032      	beq.n	8003e5e <HAL_UART_IRQHandler+0xda>
 8003df8:	0692      	lsls	r2, r2, #26
 8003dfa:	d504      	bpl.n	8003e06 <HAL_UART_IRQHandler+0x82>
 8003dfc:	068b      	lsls	r3, r1, #26
 8003dfe:	d502      	bpl.n	8003e06 <HAL_UART_IRQHandler+0x82>
 8003e00:	4620      	mov	r0, r4
 8003e02:	f7ff ff63 	bl	8003ccc <UART_Receive_IT.isra.0>
 8003e06:	6826      	ldr	r6, [r4, #0]
 8003e08:	6973      	ldr	r3, [r6, #20]
 8003e0a:	6c62      	ldr	r2, [r4, #68]	@ 0x44
 8003e0c:	f003 0340 	and.w	r3, r3, #64	@ 0x40
 8003e10:	f002 0208 	and.w	r2, r2, #8
 8003e14:	ea53 0502 	orrs.w	r5, r3, r2
 8003e18:	4620      	mov	r0, r4
 8003e1a:	d022      	beq.n	8003e62 <HAL_UART_IRQHandler+0xde>
 8003e1c:	f7ff fdfc 	bl	8003a18 <UART_EndRxTransfer>
 8003e20:	6973      	ldr	r3, [r6, #20]
 8003e22:	065e      	lsls	r6, r3, #25
 8003e24:	d518      	bpl.n	8003e58 <HAL_UART_IRQHandler+0xd4>
 8003e26:	6822      	ldr	r2, [r4, #0]
 8003e28:	f102 0314 	add.w	r3, r2, #20
 8003e2c:	e853 3f00 	ldrex	r3, [r3]
 8003e30:	f023 0340 	bic.w	r3, r3, #64	@ 0x40
 8003e34:	3214      	adds	r2, #20
 8003e36:	e842 3100 	strex	r1, r3, [r2]
 8003e3a:	2900      	cmp	r1, #0
 8003e3c:	d1f3      	bne.n	8003e26 <HAL_UART_IRQHandler+0xa2>
 8003e3e:	6be0      	ldr	r0, [r4, #60]	@ 0x3c
 8003e40:	b150      	cbz	r0, 8003e58 <HAL_UART_IRQHandler+0xd4>
 8003e42:	4b74      	ldr	r3, [pc, #464]	@ (8004014 <HAL_UART_IRQHandler+0x290>)
 8003e44:	6503      	str	r3, [r0, #80]	@ 0x50
 8003e46:	f7fd fe9e 	bl	8001b86 <HAL_DMA_Abort_IT>
 8003e4a:	b140      	cbz	r0, 8003e5e <HAL_UART_IRQHandler+0xda>
 8003e4c:	6be0      	ldr	r0, [r4, #60]	@ 0x3c
 8003e4e:	6d03      	ldr	r3, [r0, #80]	@ 0x50
 8003e50:	b002      	add	sp, #8
 8003e52:	e8bd 4070 	ldmia.w	sp!, {r4, r5, r6, lr}
 8003e56:	4718      	bx	r3
 8003e58:	4620      	mov	r0, r4
 8003e5a:	f7ff ff00 	bl	8003c5e <HAL_UART_ErrorCallback>
 8003e5e:	b002      	add	sp, #8
 8003e60:	bd70      	pop	{r4, r5, r6, pc}
 8003e62:	f7ff fefc 	bl	8003c5e <HAL_UART_ErrorCallback>
 8003e66:	6465      	str	r5, [r4, #68]	@ 0x44
 8003e68:	e7f9      	b.n	8003e5e <HAL_UART_IRQHandler+0xda>
 8003e6a:	6b20      	ldr	r0, [r4, #48]	@ 0x30
 8003e6c:	2801      	cmp	r0, #1
 8003e6e:	f040 8095 	bne.w	8003f9c <HAL_UART_IRQHandler+0x218>
 8003e72:	06d5      	lsls	r5, r2, #27
 8003e74:	f140 8092 	bpl.w	8003f9c <HAL_UART_IRQHandler+0x218>
 8003e78:	06c8      	lsls	r0, r1, #27
 8003e7a:	f140 808f 	bpl.w	8003f9c <HAL_UART_IRQHandler+0x218>
 8003e7e:	2200      	movs	r2, #0
 8003e80:	9201      	str	r2, [sp, #4]
 8003e82:	681a      	ldr	r2, [r3, #0]
 8003e84:	9201      	str	r2, [sp, #4]
 8003e86:	685a      	ldr	r2, [r3, #4]
 8003e88:	9201      	str	r2, [sp, #4]
 8003e8a:	9a01      	ldr	r2, [sp, #4]
 8003e8c:	695a      	ldr	r2, [r3, #20]
 8003e8e:	0652      	lsls	r2, r2, #25
 8003e90:	d54e      	bpl.n	8003f30 <HAL_UART_IRQHandler+0x1ac>
 8003e92:	6be1      	ldr	r1, [r4, #60]	@ 0x3c
 8003e94:	680a      	ldr	r2, [r1, #0]
 8003e96:	6852      	ldr	r2, [r2, #4]
 8003e98:	b292      	uxth	r2, r2
 8003e9a:	2a00      	cmp	r2, #0
 8003e9c:	d0df      	beq.n	8003e5e <HAL_UART_IRQHandler+0xda>
 8003e9e:	8da0      	ldrh	r0, [r4, #44]	@ 0x2c
 8003ea0:	4290      	cmp	r0, r2
 8003ea2:	d9dc      	bls.n	8003e5e <HAL_UART_IRQHandler+0xda>
 8003ea4:	85e2      	strh	r2, [r4, #46]	@ 0x2e
 8003ea6:	69ca      	ldr	r2, [r1, #28]
 8003ea8:	f5b2 7f80 	cmp.w	r2, #256	@ 0x100
 8003eac:	d036      	beq.n	8003f1c <HAL_UART_IRQHandler+0x198>
 8003eae:	f103 020c 	add.w	r2, r3, #12
 8003eb2:	e852 2f00 	ldrex	r2, [r2]
 8003eb6:	f422 7280 	bic.w	r2, r2, #256	@ 0x100
 8003eba:	f103 000c 	add.w	r0, r3, #12
 8003ebe:	e840 2100 	strex	r1, r2, [r0]
 8003ec2:	2900      	cmp	r1, #0
 8003ec4:	d1f3      	bne.n	8003eae <HAL_UART_IRQHandler+0x12a>
 8003ec6:	f103 0214 	add.w	r2, r3, #20
 8003eca:	e852 2f00 	ldrex	r2, [r2]
 8003ece:	f022 0201 	bic.w	r2, r2, #1
 8003ed2:	f103 0014 	add.w	r0, r3, #20
 8003ed6:	e840 2100 	strex	r1, r2, [r0]
 8003eda:	2900      	cmp	r1, #0
 8003edc:	d1f3      	bne.n	8003ec6 <HAL_UART_IRQHandler+0x142>
 8003ede:	f103 0214 	add.w	r2, r3, #20
 8003ee2:	e852 2f00 	ldrex	r2, [r2]
 8003ee6:	f022 0240 	bic.w	r2, r2, #64	@ 0x40
 8003eea:	f103 0014 	add.w	r0, r3, #20
 8003eee:	e840 2100 	strex	r1, r2, [r0]
 8003ef2:	2900      	cmp	r1, #0
 8003ef4:	d1f3      	bne.n	8003ede <HAL_UART_IRQHandler+0x15a>
 8003ef6:	2220      	movs	r2, #32
 8003ef8:	f884 2042 	strb.w	r2, [r4, #66]	@ 0x42
 8003efc:	6321      	str	r1, [r4, #48]	@ 0x30
 8003efe:	f103 020c 	add.w	r2, r3, #12
 8003f02:	e852 2f00 	ldrex	r2, [r2]
 8003f06:	f022 0210 	bic.w	r2, r2, #16
 8003f0a:	f103 000c 	add.w	r0, r3, #12
 8003f0e:	e840 2100 	strex	r1, r2, [r0]
 8003f12:	2900      	cmp	r1, #0
 8003f14:	d1f3      	bne.n	8003efe <HAL_UART_IRQHandler+0x17a>
 8003f16:	6be0      	ldr	r0, [r4, #60]	@ 0x3c
 8003f18:	f7fd fdf7 	bl	8001b0a <HAL_DMA_Abort>
 8003f1c:	2302      	movs	r3, #2
 8003f1e:	6363      	str	r3, [r4, #52]	@ 0x34
 8003f20:	8de3      	ldrh	r3, [r4, #46]	@ 0x2e
 8003f22:	8da1      	ldrh	r1, [r4, #44]	@ 0x2c
 8003f24:	1ac9      	subs	r1, r1, r3
 8003f26:	b289      	uxth	r1, r1
 8003f28:	4620      	mov	r0, r4
 8003f2a:	f7ff fece 	bl	8003cca <HAL_UARTEx_RxEventCallback>
 8003f2e:	e796      	b.n	8003e5e <HAL_UART_IRQHandler+0xda>
 8003f30:	8de2      	ldrh	r2, [r4, #46]	@ 0x2e
 8003f32:	8de0      	ldrh	r0, [r4, #46]	@ 0x2e
 8003f34:	8da1      	ldrh	r1, [r4, #44]	@ 0x2c
 8003f36:	b280      	uxth	r0, r0
 8003f38:	b292      	uxth	r2, r2
 8003f3a:	2800      	cmp	r0, #0
 8003f3c:	d08f      	beq.n	8003e5e <HAL_UART_IRQHandler+0xda>
 8003f3e:	1a89      	subs	r1, r1, r2
 8003f40:	b289      	uxth	r1, r1
 8003f42:	2900      	cmp	r1, #0
 8003f44:	d08b      	beq.n	8003e5e <HAL_UART_IRQHandler+0xda>
 8003f46:	f103 020c 	add.w	r2, r3, #12
 8003f4a:	e852 2f00 	ldrex	r2, [r2]
 8003f4e:	f422 7290 	bic.w	r2, r2, #288	@ 0x120
 8003f52:	f103 050c 	add.w	r5, r3, #12
 8003f56:	e845 2000 	strex	r0, r2, [r5]
 8003f5a:	2800      	cmp	r0, #0
 8003f5c:	d1f3      	bne.n	8003f46 <HAL_UART_IRQHandler+0x1c2>
 8003f5e:	f103 0214 	add.w	r2, r3, #20
 8003f62:	e852 2f00 	ldrex	r2, [r2]
 8003f66:	f022 0201 	bic.w	r2, r2, #1
 8003f6a:	f103 0514 	add.w	r5, r3, #20
 8003f6e:	e845 2000 	strex	r0, r2, [r5]
 8003f72:	2800      	cmp	r0, #0
 8003f74:	d1f3      	bne.n	8003f5e <HAL_UART_IRQHandler+0x1da>
 8003f76:	2220      	movs	r2, #32
 8003f78:	f884 2042 	strb.w	r2, [r4, #66]	@ 0x42
 8003f7c:	6320      	str	r0, [r4, #48]	@ 0x30
 8003f7e:	f103 020c 	add.w	r2, r3, #12
 8003f82:	e852 2f00 	ldrex	r2, [r2]
 8003f86:	f022 0210 	bic.w	r2, r2, #16
 8003f8a:	f103 050c 	add.w	r5, r3, #12
 8003f8e:	e845 2000 	strex	r0, r2, [r5]
 8003f92:	2800      	cmp	r0, #0
 8003f94:	d1f3      	bne.n	8003f7e <HAL_UART_IRQHandler+0x1fa>
 8003f96:	2302      	movs	r3, #2
 8003f98:	6363      	str	r3, [r4, #52]	@ 0x34
 8003f9a:	e7c5      	b.n	8003f28 <HAL_UART_IRQHandler+0x1a4>
 8003f9c:	0616      	lsls	r6, r2, #24
 8003f9e:	d528      	bpl.n	8003ff2 <HAL_UART_IRQHandler+0x26e>
 8003fa0:	060d      	lsls	r5, r1, #24
 8003fa2:	d526      	bpl.n	8003ff2 <HAL_UART_IRQHandler+0x26e>
 8003fa4:	f894 2041 	ldrb.w	r2, [r4, #65]	@ 0x41
 8003fa8:	2a21      	cmp	r2, #33	@ 0x21
 8003faa:	f47f af58 	bne.w	8003e5e <HAL_UART_IRQHandler+0xda>
 8003fae:	68a1      	ldr	r1, [r4, #8]
 8003fb0:	6a22      	ldr	r2, [r4, #32]
 8003fb2:	f5b1 5f80 	cmp.w	r1, #4096	@ 0x1000
 8003fb6:	d117      	bne.n	8003fe8 <HAL_UART_IRQHandler+0x264>
 8003fb8:	6921      	ldr	r1, [r4, #16]
 8003fba:	b9a9      	cbnz	r1, 8003fe8 <HAL_UART_IRQHandler+0x264>
 8003fbc:	f832 1b02 	ldrh.w	r1, [r2], #2
 8003fc0:	f3c1 0108 	ubfx	r1, r1, #0, #9
 8003fc4:	6059      	str	r1, [r3, #4]
 8003fc6:	6222      	str	r2, [r4, #32]
 8003fc8:	8ce2      	ldrh	r2, [r4, #38]	@ 0x26
 8003fca:	3a01      	subs	r2, #1
 8003fcc:	b292      	uxth	r2, r2
 8003fce:	84e2      	strh	r2, [r4, #38]	@ 0x26
 8003fd0:	2a00      	cmp	r2, #0
 8003fd2:	f47f af44 	bne.w	8003e5e <HAL_UART_IRQHandler+0xda>
 8003fd6:	68da      	ldr	r2, [r3, #12]
 8003fd8:	f022 0280 	bic.w	r2, r2, #128	@ 0x80
 8003fdc:	60da      	str	r2, [r3, #12]
 8003fde:	68da      	ldr	r2, [r3, #12]
 8003fe0:	f042 0240 	orr.w	r2, r2, #64	@ 0x40
 8003fe4:	60da      	str	r2, [r3, #12]
 8003fe6:	e73a      	b.n	8003e5e <HAL_UART_IRQHandler+0xda>
 8003fe8:	1c51      	adds	r1, r2, #1
 8003fea:	6221      	str	r1, [r4, #32]
 8003fec:	7812      	ldrb	r2, [r2, #0]
 8003fee:	605a      	str	r2, [r3, #4]
 8003ff0:	e7ea      	b.n	8003fc8 <HAL_UART_IRQHandler+0x244>
 8003ff2:	0650      	lsls	r0, r2, #25
 8003ff4:	f57f af33 	bpl.w	8003e5e <HAL_UART_IRQHandler+0xda>
 8003ff8:	064a      	lsls	r2, r1, #25
 8003ffa:	f57f af30 	bpl.w	8003e5e <HAL_UART_IRQHandler+0xda>
 8003ffe:	68da      	ldr	r2, [r3, #12]
 8004000:	f022 0240 	bic.w	r2, r2, #64	@ 0x40
 8004004:	60da      	str	r2, [r3, #12]
 8004006:	2320      	movs	r3, #32
 8004008:	f884 3041 	strb.w	r3, [r4, #65]	@ 0x41
 800400c:	4620      	mov	r0, r4
 800400e:	f7ff fdf9 	bl	8003c04 <HAL_UART_TxCpltCallback>
 8004012:	e724      	b.n	8003e5e <HAL_UART_IRQHandler+0xda>
 8004014:	08003cbb 	.word	0x08003cbb

08004018 <UART_Start_Receive_IT>:
 8004018:	85c2      	strh	r2, [r0, #46]	@ 0x2e
 800401a:	2300      	movs	r3, #0
 800401c:	8582      	strh	r2, [r0, #44]	@ 0x2c
 800401e:	6902      	ldr	r2, [r0, #16]
 8004020:	6443      	str	r3, [r0, #68]	@ 0x44
 8004022:	2322      	movs	r3, #34	@ 0x22
 8004024:	f880 3042 	strb.w	r3, [r0, #66]	@ 0x42
 8004028:	6281      	str	r1, [r0, #40]	@ 0x28
 800402a:	6803      	ldr	r3, [r0, #0]
 800402c:	b11a      	cbz	r2, 8004036 <UART_Start_Receive_IT+0x1e>
 800402e:	68da      	ldr	r2, [r3, #12]
 8004030:	f442 7280 	orr.w	r2, r2, #256	@ 0x100
 8004034:	60da      	str	r2, [r3, #12]
 8004036:	695a      	ldr	r2, [r3, #20]
 8004038:	f042 0201 	orr.w	r2, r2, #1
 800403c:	615a      	str	r2, [r3, #20]
 800403e:	68da      	ldr	r2, [r3, #12]
 8004040:	f042 0220 	orr.w	r2, r2, #32
 8004044:	60da      	str	r2, [r3, #12]
 8004046:	2000      	movs	r0, #0
 8004048:	4770      	bx	lr

0800404a <HAL_UART_Receive_IT>:
 800404a:	b470      	push	{r4, r5, r6}
 800404c:	f890 6042 	ldrb.w	r6, [r0, #66]	@ 0x42
 8004050:	2e20      	cmp	r6, #32
 8004052:	d106      	bne.n	8004062 <HAL_UART_Receive_IT+0x18>
 8004054:	b141      	cbz	r1, 8004068 <HAL_UART_Receive_IT+0x1e>
 8004056:	b13a      	cbz	r2, 8004068 <HAL_UART_Receive_IT+0x1e>
 8004058:	2400      	movs	r4, #0
 800405a:	6304      	str	r4, [r0, #48]	@ 0x30
 800405c:	bc70      	pop	{r4, r5, r6}
 800405e:	f7ff bfdb 	b.w	8004018 <UART_Start_Receive_IT>
 8004062:	2002      	movs	r0, #2
 8004064:	bc70      	pop	{r4, r5, r6}
 8004066:	4770      	bx	lr
 8004068:	2001      	movs	r0, #1
 800406a:	e7fb      	b.n	8004064 <HAL_UART_Receive_IT+0x1a>

0800406c <memset>:
 800406c:	4402      	add	r2, r0
 800406e:	4603      	mov	r3, r0
 8004070:	4293      	cmp	r3, r2
 8004072:	d100      	bne.n	8004076 <memset+0xa>
 8004074:	4770      	bx	lr
 8004076:	f803 1b01 	strb.w	r1, [r3], #1
 800407a:	e7f9      	b.n	8004070 <memset+0x4>

0800407c <__libc_init_array>:
 800407c:	b570      	push	{r4, r5, r6, lr}
 800407e:	4d0d      	ldr	r5, [pc, #52]	@ (80040b4 <__libc_init_array+0x38>)
 8004080:	4c0d      	ldr	r4, [pc, #52]	@ (80040b8 <__libc_init_array+0x3c>)
 8004082:	1b64      	subs	r4, r4, r5
 8004084:	10a4      	asrs	r4, r4, #2
 8004086:	2600      	movs	r6, #0
 8004088:	42a6      	cmp	r6, r4
 800408a:	d109      	bne.n	80040a0 <__libc_init_array+0x24>
 800408c:	4d0b      	ldr	r5, [pc, #44]	@ (80040bc <__libc_init_array+0x40>)
 800408e:	4c0c      	ldr	r4, [pc, #48]	@ (80040c0 <__libc_init_array+0x44>)
 8004090:	f000 f826 	bl	80040e0 <_init>
 8004094:	1b64      	subs	r4, r4, r5
 8004096:	10a4      	asrs	r4, r4, #2
 8004098:	2600      	movs	r6, #0
 800409a:	42a6      	cmp	r6, r4
 800409c:	d105      	bne.n	80040aa <__libc_init_array+0x2e>
 800409e:	bd70      	pop	{r4, r5, r6, pc}
 80040a0:	f855 3b04 	ldr.w	r3, [r5], #4
 80040a4:	4798      	blx	r3
 80040a6:	3601      	adds	r6, #1
 80040a8:	e7ee      	b.n	8004088 <__libc_init_array+0xc>
 80040aa:	f855 3b04 	ldr.w	r3, [r5], #4
 80040ae:	4798      	blx	r3
 80040b0:	3601      	adds	r6, #1
 80040b2:	e7f2      	b.n	800409a <__libc_init_array+0x1e>
 80040b4:	08004124 	.word	0x08004124
 80040b8:	08004124 	.word	0x08004124
 80040bc:	08004124 	.word	0x08004124
 80040c0:	08004128 	.word	0x08004128

080040c4 <memcpy>:
 80040c4:	440a      	add	r2, r1
 80040c6:	4291      	cmp	r1, r2
 80040c8:	f100 33ff 	add.w	r3, r0, #4294967295	@ 0xffffffff
 80040cc:	d100      	bne.n	80040d0 <memcpy+0xc>
 80040ce:	4770      	bx	lr
 80040d0:	b510      	push	{r4, lr}
 80040d2:	f811 4b01 	ldrb.w	r4, [r1], #1
 80040d6:	f803 4f01 	strb.w	r4, [r3, #1]!
 80040da:	4291      	cmp	r1, r2
 80040dc:	d1f9      	bne.n	80040d2 <memcpy+0xe>
 80040de:	bd10      	pop	{r4, pc}

080040e0 <_init>:
 80040e0:	b5f8      	push	{r3, r4, r5, r6, r7, lr}
 80040e2:	bf00      	nop
 80040e4:	bcf8      	pop	{r3, r4, r5, r6, r7}
 80040e6:	bc08      	pop	{r3}
 80040e8:	469e      	mov	lr, r3
 80040ea:	4770      	bx	lr

080040ec <_fini>:
 80040ec:	b5f8      	push	{r3, r4, r5, r6, r7, lr}
 80040ee:	bf00      	nop
 80040f0:	bcf8      	pop	{r3, r4, r5, r6, r7}
 80040f2:	bc08      	pop	{r3}
 80040f4:	469e      	mov	lr, r3
 80040f6:	4770      	bx	lr
